ASMA Ver. 0.2.1              CLCE-03-performance (Test CLCLE instructions)                          23 Aug 2022 21:53:43  Page     1

  LOC        OBJECT CODE       ADDR1     ADDR2    STMT

                                                     2 ***********************************************************************
                                                     3 *
                                                     4 *            CLCE instruction tests
                                                     5 *
                                                     6 *        NOTE: This is a copy of the CLCL-et-al Test
                                                     7 *              modified to only test the CLCLE instruction.
                                                     8 *              Specifically, instuction
                                                     9 *
                                                    10 *              CLCL  R10,R12
                                                    11 *
                                                    12 *              was changed to
                                                    13 *
                                                    14 *              CLCLE R10,R12,0
                                                    15 *              BC    B'0001',*-4          not finished?
                                                    16 *
                                                    17 *
                                                    18 *        James Wekel August 2022
                                                    19 ***********************************************************************
                                                    20 ***********************************************************************
                                                    21 *
                                                    22 *  This program tests proper functioning of the CLCLE instructions.
                                                    23 *  It also optionally times them.
                                                    24 *
                                                    25 *  PLEASE NOTE that the tests are very SIMPLE TESTS designed to catch
                                                    26 *  obvious coding errors.  None of the tests are thorough.  They are
                                                    27 *  NOT designed to test all aspects of any of the instructions.
                                                    28 *
                                                    29 ***********************************************************************
                                                    30 *
                                                    31 *  Example Hercules Testcase:
                                                    32 *
                                                    33 *
                                                    34 *        *Testcase CLCE-03-performance (Test CLCLE instructions)
                                                    35 *
                                                    36 *        archlvl     390
                                                    37 *        mainsize    3
                                                    38 *        numcpu      1
                                                    39 *        sysclear
                                                    40 *
                                                    41 *        loadcore    "CLCLE-03-performance.core" 0x0
                                                    42 *
                                                    43 *        ##r           21fd=ff   # (enable timing tests too!)
                                                    44 *        ##runtest     300       # (TIMING too test duration)
                                                    45 *        runtest     1         # (NON-timing test duration)
                                                    46 *        *Done
                                                    47 *
                                                    48 ***********************************************************************
ASMA Ver. 0.2.1              CLCE-03-performance (Test CLCLE instructions)                          23 Aug 2022 21:53:43  Page     2

  LOC        OBJECT CODE       ADDR1     ADDR2    STMT

                                                    50          PRINT OFF
                                                  3431          PRINT ON

                                                  3433 ***********************************************************************
                                                  3434 *        SATK prolog stuff...
                                                  3435 ***********************************************************************

                                                  3437          ARCHLVL  ZARCH=NO,MNOTE=NO
                                                  3439+$AL      OPSYN AL
                                                  3440+$ALR     OPSYN ALR
                                                  3441+$B       OPSYN B
                                                  3442+$BAS     OPSYN BAS
                                                  3443+$BASR    OPSYN BASR
                                                  3444+$BC      OPSYN BC
                                                  3445+$BCTR    OPSYN BCTR
                                                  3446+$BE      OPSYN BE
                                                  3447+$BH      OPSYN BH
                                                  3448+$BL      OPSYN BL
                                                  3449+$BM      OPSYN BM
                                                  3450+$BNE     OPSYN BNE
                                                  3451+$BNH     OPSYN BNH
                                                  3452+$BNL     OPSYN BNL
                                                  3453+$BNM     OPSYN BNM
                                                  3454+$BNO     OPSYN BNO
                                                  3455+$BNP     OPSYN BNP
                                                  3456+$BNZ     OPSYN BNZ
                                                  3457+$BO      OPSYN BO
                                                  3458+$BP      OPSYN BP
                                                  3459+$BXLE    OPSYN BXLE
                                                  3460+$BZ      OPSYN BZ
                                                  3461+$CH      OPSYN CH
                                                  3462+$L       OPSYN L
                                                  3463+$LH      OPSYN LH
                                                  3464+$LM      OPSYN LM
                                                  3465+$LPSW    OPSYN LPSW
                                                  3466+$LR      OPSYN LR
                                                  3467+$LTR     OPSYN LTR
                                                  3468+$NR      OPSYN NR
                                                  3469+$SL      OPSYN SL
                                                  3470+$SLR     OPSYN SLR
                                                  3471+$SR      OPSYN SR
                                                  3472+$ST      OPSYN ST
                                                  3473+$STM     OPSYN STM
                                                  3474+$X       OPSYN X
                                                  3475+$AHI     OPSYN AHI
                                                  3476+$B       OPSYN J
                                                  3477+$BC      OPSYN BRC
                                                  3478+$BE      OPSYN JE
                                                  3479+$BH      OPSYN JH
                                                  3480+$BL      OPSYN JL
                                                  3481+$BM      OPSYN JM
                                                  3482+$BNE     OPSYN JNE
ASMA Ver. 0.2.1              CLCE-03-performance (Test CLCLE instructions)                          23 Aug 2022 21:53:43  Page     3

  LOC        OBJECT CODE       ADDR1     ADDR2    STMT

                                                  3483+$BNH     OPSYN JNH
                                                  3484+$BNL     OPSYN JNL
                                                  3485+$BNM     OPSYN JNM
                                                  3486+$BNO     OPSYN JNO
                                                  3487+$BNP     OPSYN JNP
                                                  3488+$BNZ     OPSYN JNZ
                                                  3489+$BO      OPSYN JO
                                                  3490+$BP      OPSYN JP
                                                  3491+$BXLE    OPSYN JXLE
                                                  3492+$BZ      OPSYN JZ
                                                  3493+$CHI     OPSYN CHI
ASMA Ver. 0.2.1              CLCE-03-performance (Test CLCLE instructions)                          23 Aug 2022 21:53:43  Page     4

  LOC        OBJECT CODE       ADDR1     ADDR2    STMT

                                                  3495 ***********************************************************************
                                                  3496 *        Initiate the CLCLetal CSECT in the CODE region
                                                  3497 *        with the location counter at 0
                                                  3498 ***********************************************************************

                                                  3500 CLCLetal ASALOAD  REGION=CODE
                              00000000  00003000  3501+CLCLetal START 0,CODE
00000000  000A0000 00000008                       3503+         PSW   0,0,2,0,X'008'      64-bit Restart ISR Trap New PSW
00000008                      00000008  00000058  3504+         ORG   CLCLetal+X'058'
00000058  000A0000 00000018                       3506+         PSW   0,0,2,0,X'018'      64-bit External ISR Trap New PSW
00000060  000A0000 00000020                       3507+         PSW   0,0,2,0,X'020'      64-bit Supervisor Call ISR Trap New PSW
00000068  000A0000 00000028                       3508+         PSW   0,0,2,0,X'028'      64-bit Program ISR Trap New PSW
00000070  000A0000 00000030                       3509+         PSW   0,0,2,0,X'030'      64-bit Machine Check Trap New PSW
00000078  000A0000 00000038                       3510+         PSW   0,0,2,0,X'038'      64-bit Input/Output Trap New PSW
00000080                      00000080  00000200  3511+         ORG   CLCLetal+512



                                                  3513 ***********************************************************************
                                                  3514 *        Create IPL (restart) PSW
                                                  3515 ***********************************************************************

                                                  3517          ASAIPL   IA=BEGIN
00000200                      00000200  00000000  3518+         ORG   CLCLetal
00000000  00080000 00000200                       3519+         PSW   0,0,0,0,BEGIN,24
00000008                      00000008  00000200  3520+         ORG   CLCLetal+512     Reset CSECT to end of assigned storage area
ASMA Ver. 0.2.1              CLCE-03-performance (Test CLCLE instructions)                          23 Aug 2022 21:53:43  Page     5

  LOC        OBJECT CODE       ADDR1     ADDR2    STMT

                                                  3522 ***********************************************************************
                                                  3523 *               The actual "CLCLetal" program itself...
                                                  3524 ***********************************************************************
                                                  3525 *
                                                  3526 *  Architecture Mode: 390
                                                  3527 *  Addressing Mode:   31-bit
                                                  3528 *  Register Usage:
                                                  3529 *
                                                  3530 *   R0       (work)
                                                  3531 *   R1       I/O device used by ENADEV and RAWIO macros
                                                  3532 *   R2       First base register
                                                  3533 *   R3       IOCB pointer for ENADEV and RAWIO macros
                                                  3534 *   R4       IO work register used by ENADEV and RAWIO
                                                  3535 *   R5-R7    (work)
                                                  3536 *   R8       ORB pointer
                                                  3537 *   R9       Second base register
                                                  3538 *   R10-R13  (work)
                                                  3539 *   R14      Subroutine call
                                                  3540 *   R15      Secondary Subroutine call or work
                                                  3541 *
                                                  3542 ***********************************************************************

00000200                      00000000            3544          USING  ASA,R0          Low core addressability
00000200                      00000200            3545          USING  BEGIN,R2        FIRST Base Register
00000200                      00001200            3546          USING  BEGIN+4096,R9   SECOND Base Register
00000200                      00000000            3547          USING  IOCB,R3         SATK Device I/O Control Block
00000200                      00000000            3548          USING  ORB,R8          ESA/390 Operation Request Block

00000200  0520                                    3550 BEGIN    BALR  R2,0             Initalize FIRST base register
00000202  0620                                    3551          BCTR  R2,0             Initalize FIRST base register
00000204  0620                                    3552          BCTR  R2,0             Initalize FIRST base register

00000206  4190 2800                     00000800  3554          LA    R9,2048(,R2)     Initalize SECOND base register
0000020A  4190 9800                     00000800  3555          LA    R9,2048(,R9)     Initalize SECOND base register

0000020E  45E0 2C28                     00000E28  3557          BAL   R14,INIT         Initalize Program
                                                  3558 *
                                                  3559 **       Run the tests...
                                                  3560 *
00000212  45E0 203A                     0000023A  3561          BAL   R14,TEST02       Test CLCLE  instruction
                                                  3562 *
00000216  45E0 2144                     00000344  3563          BAL   R14,TEST92       Time CLCLE  instruction  (speed test)
                                                  3564 *
0000021A  45E0 2976                     00000B76  3565          BAL   R14,TEST95       Test CLCLE page fault handling
ASMA Ver. 0.2.1              CLCE-03-performance (Test CLCLE instructions)                          23 Aug 2022 21:53:43  Page     6

  LOC        OBJECT CODE       ADDR1     ADDR2    STMT

                                                  3567 ***********************************************************************
                                                  3568 *         Test for normal or unexpected test completion...
                                                  3569 ***********************************************************************

0000021E  9500 9FFD                     000021FD  3571          CLI   TIMEOPT,X'00'    Normal (non-timing) run?
00000222  4770 2C4A                     00000E4A  3572          BNE   EOJ              No, timing run; just go end normally

00000226  9595 9FFE                     000021FE  3574          CLI   TESTNUM,X'95'    Did we end on expected test?
0000022A  4770 2C78                     00000E78  3575          BNE   FAILTEST         No?! Then FAIL the test!

0000022E  9510 9FFF                     000021FF  3577          CLI   SUBTEST,X'10'    Did we end on expected SUB-test?
00000232  4770 2C78                     00000E78  3578          BNE   FAILTEST         No?! Then FAIL the test!

00000236  47F0 2C4A                     00000E4A  3580          B     EOJ              Yes, then normal completion!
ASMA Ver. 0.2.1              CLCE-03-performance (Test CLCLE instructions)                          23 Aug 2022 21:53:43  Page     7

  LOC        OBJECT CODE       ADDR1     ADDR2    STMT

                                                  3582 ***********************************************************************
                                                  3583 *        TEST02                   Test CLCLE instruction
                                                  3584 ***********************************************************************

0000023A  9202 9FFE                     000021FE  3586 TEST02   MVI   TESTNUM,X'02'
                                                  3587 *
                                                  3588 **       Initialize test parameters...
                                                  3589 *
0000023E  9856 2EC8                     000010C8  3590          LM     R5,R6,CLCL4     CLCL4 test Op1 address and length
00000242  1E56                                    3591          ALR    R5,R6           Point past last byte
00000244  0650                                    3592          BCTR   R5,0            Backup to last byte
00000246  92FF 5000                     00000000  3593          MVI    0(R5),X'FF'     Force unequal compare (op1 high)
                                                  3594 *
0000024A  9856 2EE8                     000010E8  3595          LM     R5,R6,CLCLOP1   (same thing for CLCLOP1 test)
0000024E  1E56                                    3596          ALR    R5,R6                        "
00000250  0650                                    3597          BCTR   R5,0                         "
00000252  92FF 5000                     00000000  3598          MVI    0(R5),X'FF'                  "
                                                  3599 *
00000256  9856 2EE0                     000010E0  3600          LM     R5,R6,CLCL8+8   CLCL8 test ===> OP2 <===
0000025A  1E56                                    3601          ALR    R5,R6
0000025C  0650                                    3602          BCTR   R5,0
0000025E  92FF 5000                     00000000  3603          MVI    0(R5),X'FF'     ===> OPERAND-2 high (OP1 LOW) <===
                                                  3604 *
                                                  3605 **       Neither cross (one byte)
                                                  3606 *
00000262  9201 9FFF                     000021FF  3607          MVI   SUBTEST,X'01'
00000266  98AD 2E68                     00001068  3608          LM    R10,R13,CLCL1
0000026A  A9AC 0000                     00000000  3609          CLCLE R10,R12,0
0000026E  4710 206A                     0000026A  3610          BC    B'0001',*-4          not finished?
00000272  4770 2C78                     00000E78  3611          BNE   FAILTEST
00000276  4150 2F08                     00001108  3612          LA    R5,ECLCL1
0000027A  45F0 2C3A                     00000E3A  3613          BAL   R15,ENDCLCL
                                                  3614 *
                                                  3615 **       Neither cross (two bytes)
                                                  3616 *
0000027E  9202 9FFF                     000021FF  3617          MVI   SUBTEST,X'02'
00000282  98AD 2E78                     00001078  3618          LM    R10,R13,CLCL2
00000286  A9AC 0000                     00000000  3619          CLCLE R10,R12,0
0000028A  4710 2086                     00000286  3620          BC    B'0001',*-4          not finished?
0000028E  4770 2C78                     00000E78  3621          BNE   FAILTEST
00000292  4150 2F18                     00001118  3622          LA    R5,ECLCL2
00000296  45F0 2C3A                     00000E3A  3623          BAL   R15,ENDCLCL
                                                  3624 *
                                                  3625 **       Neither cross (four bytes)
                                                  3626 **       (inequality on last byte of op1)
                                                  3627 *
0000029A  9204 9FFF                     000021FF  3628          MVI   SUBTEST,X'04'
0000029E  98AD 2EC8                     000010C8  3629          LM    R10,R13,CLCL4
000002A2  A9AC 0000                     00000000  3630          CLCLE R10,R12,0
000002A6  4710 20A2                     000002A2  3631          BC    B'0001',*-4          not finished?
000002AA  47D0 2C78                     00000E78  3632          BNH   FAILTEST                 (see INIT; CLCL4:   op1 > op2)
000002AE  4150 2F68                     00001168  3633          LA    R5,ECLCL4
ASMA Ver. 0.2.1              CLCE-03-performance (Test CLCLE instructions)                          23 Aug 2022 21:53:43  Page     8

  LOC        OBJECT CODE       ADDR1     ADDR2    STMT

000002B2  45F0 2C3A                     00000E3A  3634          BAL   R15,ENDCLCL
ASMA Ver. 0.2.1              CLCE-03-performance (Test CLCLE instructions)                          23 Aug 2022 21:53:43  Page     9

  LOC        OBJECT CODE       ADDR1     ADDR2    STMT

                                                  3636 *
                                                  3637 **       Neither cross (eight bytes)
                                                  3638 **       (inequality on last byte of op2)
                                                  3639 *
000002B6  9208 9FFF                     000021FF  3640          MVI   SUBTEST,X'08'
000002BA  98AD 2ED8                     000010D8  3641          LM    R10,R13,CLCL8
000002BE  A9AC 0000                     00000000  3642          CLCLE R10,R12,0
000002C2  4710 20BE                     000002BE  3643          BC    B'0001',*-4          not finished?
000002C6  47B0 2C78                     00000E78  3644          BNL   FAILTEST                 (see INIT; CLCL8:   op1 < op2)
000002CA  4150 2F78                     00001178  3645          LA    R5,ECLCL8
000002CE  45F0 2C3A                     00000E3A  3646          BAL   R15,ENDCLCL
                                                  3647 *
                                                  3648 **       Neither cross (1K bytes)
                                                  3649 *
000002D2  9200 9FFF                     000021FF  3650          MVI   SUBTEST,X'00'
000002D6  98AD 2E98                     00001098  3651          LM    R10,R13,CLCL1K
000002DA  A9AC 0000                     00000000  3652          CLCLE R10,R12,0
000002DE  4710 20DA                     000002DA  3653          BC    B'0001',*-4          not finished?
000002E2  4770 2C78                     00000E78  3654          BNE   FAILTEST
000002E6  4150 2F38                     00001138  3655          LA    R5,ECLCL1K
000002EA  45F0 2C3A                     00000E3A  3656          BAL   R15,ENDCLCL
                                                  3657 *
                                                  3658 **       Both cross
                                                  3659 *
000002EE  9222 9FFF                     000021FF  3660          MVI   SUBTEST,X'22'
000002F2  98AD 2EA8                     000010A8  3661          LM    R10,R13,CLCLBOTH
000002F6  A9AC 0000                     00000000  3662          CLCLE R10,R12,0
000002FA  4710 20F6                     000002F6  3663          BC    B'0001',*-4          not finished?
000002FE  4770 2C78                     00000E78  3664          BNE   FAILTEST
00000302  4150 2F48                     00001148  3665          LA    R5,ECLCLBTH
00000306  45F0 2C3A                     00000E3A  3666          BAL   R15,ENDCLCL
                                                  3667 *
                                                  3668 **       Only op1 crosses
                                                  3669 **       (inequality on last byte of op1)
                                                  3670 *
0000030A  9210 9FFF                     000021FF  3671          MVI   SUBTEST,X'10'
0000030E  98AD 2EE8                     000010E8  3672          LM    R10,R13,CLCLOP1
00000312  A9AC 0000                     00000000  3673          CLCLE R10,R12,0
00000316  4710 2112                     00000312  3674          BC    B'0001',*-4          not finished?
0000031A  47D0 2C78                     00000E78  3675          BNH   FAILTEST                 (see INIT; CLCLOP1: op1 > op2)
0000031E  4150 2F88                     00001188  3676          LA    R5,ECLCLOP1
00000322  45F0 2C3A                     00000E3A  3677          BAL   R15,ENDCLCL
                                                  3678 *
                                                  3679 **       Only op2 crosses
                                                  3680 *
00000326  9220 9FFF                     000021FF  3681          MVI   SUBTEST,X'20'
0000032A  98AD 2EB8                     000010B8  3682          LM    R10,R13,CLCLOP2
0000032E  A9AC 0000                     00000000  3683          CLCLE R10,R12,0
00000332  4710 212E                     0000032E  3684          BC    B'0001',*-4          not finished?
00000336  4770 2C78                     00000E78  3685          BNE   FAILTEST
0000033A  4150 2F58                     00001158  3686          LA    R5,ECLCLOP2
0000033E  45F0 2C3A                     00000E3A  3687          BAL   R15,ENDCLCL
ASMA Ver. 0.2.1              CLCE-03-performance (Test CLCLE instructions)                          23 Aug 2022 21:53:43  Page    10

  LOC        OBJECT CODE       ADDR1     ADDR2    STMT

                                                  3688 *
00000342  07FE                                    3689          BR    R14
ASMA Ver. 0.2.1              CLCE-03-performance (Test CLCLE instructions)                          23 Aug 2022 21:53:43  Page    11

  LOC        OBJECT CODE       ADDR1     ADDR2    STMT

                                                  3691 ***********************************************************************
                                                  3692 *        TEST92                 Time CLCLE instruction  (speed test)
                                                  3693 ***********************************************************************

00000344  91FF 9FFD                     000021FD  3695 TEST92   TM    TIMEOPT,X'FF'    Is timing tests option enabled?
00000348  078E                                    3696          BZR   R14              No, skip timing tests

0000034A  9292 9FFE                     000021FE  3698          MVI   TESTNUM,X'92'
0000034E  9201 9FFF                     000021FF  3699          MVI   SUBTEST,X'01'
                                                  3700 *
                                                  3701 **       First, make sure we start clean!
                                                  3702 *
00000352  98AD 2E88                     00001088  3703          LM    R10,R13,CLCL256
00000356  D2FF A000 C000      00000000  00000000  3704          MVC   0(256,R10),0(R12)          (forces full comparison)
                                                  3705 *
                                                  3706 **       Next, time the overhead...
                                                  3707 *
0000035C  5850 2D90                     00000F90  3708          L     R5,NUMLOOPS
00000360  B205 2D98                     00000F98  3709          STCK  BEGCLOCK
00000364  0560                                    3710          BALR  R6,0
00000366  98AD 2E88                     00001088  3711          LM    R10,R13,CLCL256
0000036A  4710 216E                     0000036E  3712          BC    B'0001',*+4          include not finished
0000036E  98AD 2E88                     00001088  3713          LM    R10,R13,CLCL256
00000372  4710 2176                     00000376  3714          BC    B'0001',*+4          include not finished
                                                  3715 *        .........ETC.........
                                                  3716          PRINT OFF
                                                  3913          PRINT ON
                                                  3914 *
0000067E  98AD 2E88                     00001088  3915          LM    R10,R13,CLCL256
00000682  4710 2486                     00000686  3916          BC    B'0001',*+4          include not finished
00000686  98AD 2E88                     00001088  3917          LM    R10,R13,CLCL256
0000068A  4710 248E                     0000068E  3918          BC    B'0001',*+4          include not finished
0000068E  0656                                    3919          BCTR  R5,R6
00000690  B205 2DA0                     00000FA0  3920          STCK  ENDCLOCK
00000694  45F0 2B9C                     00000D9C  3921          BAL   R15,CALCDUR
00000698  D207 2DB0 2DA8      00000FB0  00000FA8  3922          MVC   OVERHEAD,DURATION
                                                  3923 *
                                                  3924 **       Now do the actual timing run...
                                                  3925 *
0000069E  5850 2D90                     00000F90  3926          L     R5,NUMLOOPS
000006A2  B205 2D98                     00000F98  3927          STCK  BEGCLOCK
000006A6  0560                                    3928          BALR  R6,0
000006A8  98AD 2E88                     00001088  3929          LM    R10,R13,CLCL256
000006AC  A9AC 0000                     00000000  3930          CLCLE R10,R12,0
000006B0  4710 24AC                     000006AC  3931          BC    B'0001',*-4          not finished?
000006B4  98AD 2E88                     00001088  3932          LM    R10,R13,CLCL256
000006B8  A9AC 0000                     00000000  3933          CLCLE R10,R12,0
000006BC  4710 24B8                     000006B8  3934          BC    B'0001',*-4          not finished?
                                                  3935 *        .........ETC.........
                                                  3936          PRINT OFF
                                                  4230          PRINT ON
00000B4C  98AD 2E88                     00001088  4231          LM    R10,R13,CLCL256
ASMA Ver. 0.2.1              CLCE-03-performance (Test CLCLE instructions)                          23 Aug 2022 21:53:43  Page    12

  LOC        OBJECT CODE       ADDR1     ADDR2    STMT

00000B50  A9AC 0000                     00000000  4232          CLCLE R10,R12,0
00000B54  4710 2950                     00000B50  4233          BC    B'0001',*-4          not finished?
00000B58  98AD 2E88                     00001088  4234          LM    R10,R13,CLCL256
00000B5C  A9AC 0000                     00000000  4235          CLCLE R10,R12,0
00000B60  4710 295C                     00000B5C  4236          BC    B'0001',*-4          not finished?
                                                  4237
00000B64  0656                                    4238          BCTR  R5,R6
00000B66  B205 2DA0                     00000FA0  4239          STCK  ENDCLOCK
                                                  4240 *
00000B6A  D204 2DF9 2D7C      00000FF9  00000F7C  4241          MVC   PRTLINE+33(5),=CL6'CLCLE'
00000B70  45F0 2AC2                     00000CC2  4242          BAL   R15,RPTSPEED
00000B74  07FE                                    4243          BR    R14
ASMA Ver. 0.2.1              CLCE-03-performance (Test CLCLE instructions)                          23 Aug 2022 21:53:43  Page    13

  LOC        OBJECT CODE       ADDR1     ADDR2    STMT

                                                  4245 ***********************************************************************
                                                  4246 *        TEST95                   Test CLCLE page fault handling
                                                  4247 ***********************************************************************

00000B76  9295 9FFE                     000021FE  4249 TEST95   MVI   TESTNUM,X'95'
00000B7A  9200 9FFF                     000021FF  4250          MVI   SUBTEST,X'00'
                                                  4251 *
                                                  4252 **       First, make sure we start clean!
                                                  4253 *
00000B7E  98AD 2EF8                     000010F8  4254          LM    R10,R13,CLCLPF     Retrieve CLCL PF test parameters
00000B82  0EAC                                    4255          MVCL  R10,R12            (forces full comparison)
                                                  4256 *
                                                  4257 **       Initialize Dynamic Address Translation tables...
                                                  4258 *
00000B84  58A0 2D64                     00000F64  4259          L     R10,=A(SEGTABLS)   Segment Tables Origin
00000B88  41B0 0020                     00000020  4260          LA    R11,NUMPGTBS       Number of Segment Table Entries
00000B8C  58C0 2D68                     00000F68  4261          L     R12,=A(PAGETABS)   Page Tables Origin
00000B90  1F00                                    4262          SLR   R0,R0              First Page Frame Address
00000B92  4160 0004                     00000004  4263          LA    R6,4               Size of one table entry
00000B96  5870 2D6C                     00000F6C  4264          L     R7,=A(PAGE)        Size of one Page Frame

00000B9A  50C0 A000                     00000000  4266 SEGLOOP  ST    R12,0(,R10)        Seg Table Entry <= Page Table Origin
00000B9E  960F A003                     00000003  4267          OI    3(R10),X'0F'       Seg Table Entry <= Page Table Length
00000BA2  1EA6                                    4268          ALR   R10,R6             Bump to next Segment Table Entry

00000BA4  41D0 0010                     00000010  4270          LA    R13,16             Page Table Entries per Page Table
00000BA8  5000 C000                     00000000  4271 PAGELOOP ST    R0,0(,R12)         Page Table Entry = Page Frame Address
00000BAC  1E07                                    4272          ALR   R0,R7              Increment to next Page Frame Address
00000BAE  1EC6                                    4273          ALR   R12,R6             Bump to next Page Table Entry
00000BB0  46D0 29A8                     00000BA8  4274          BCT   R13,PAGELOOP       Loop until Page table is complete

00000BB4  46B0 299A                     00000B9A  4276          BCT   R11,SEGLOOP        Loop until all Segment Table Entries built
                                                  4277 *
                                                  4278 **       Update desired page table entry to cause page fault
                                                  4279 *
00000BB8  98AD 2EF8                     000010F8  4280          LM    R10,R13,CLCLPF     Retrieve CLCL PF test parameters
00000BBC  185A                                    4281          LR    R5,R10             R5 --> Operand-1
00000BBE  5E50 2D70                     00000F70  4282          AL    R5,=A(PFPGBYTS)    R5 --> Operand-1 Page Fault address
00000BC2  1865                                    4283          LR    R6,R5              R6 --> Address where PF should occur
00000BC4  8850 000C                     0000000C  4284          SRL   R5,12              R5 = Page Frame number
00000BC8  8950 0002                     00000002  4285          SLL   R5,2               R5 = Page Table Entry number

00000BCC  9204 9FFF                     000021FF  4287          MVI   SUBTEST,X'04'
00000BD0  5E50 2D68                     00000F68  4288          AL    R5,=A(PAGETABS)    R5 --> Page Table Entry
00000BD4  9604 5002                     00000002  4289          OI    2(R5),X'04'        Mark this page invalid
ASMA Ver. 0.2.1              CLCE-03-performance (Test CLCLE instructions)                          23 Aug 2022 21:53:43  Page    14

  LOC        OBJECT CODE       ADDR1     ADDR2    STMT

                                                  4291 *
                                                  4292 **       Install program check routine to catch the page fault
                                                  4293 *
00000BD8  9202 9FFF                     000021FF  4294          MVI   SUBTEST,X'02'
00000BDC  D207 2A20 0068      00000C20  00000068  4295          MVC   SVPGMNEW,PGMNPSW   Save original Program New PSW
00000BE2  4100 2A30                     00000C30  4296          LA    R0,MYPGMNEW        Point to temporary Pgm New routine
00000BE6  5000 006C                     0000006C  4297          ST    R0,PGMNPSW+4       Point Program New PSW to our routine
00000BEA  9208 0069                     00000069  4298          MVI   PGMNPSW+1,X'08'    Make it a non-disabled-wait PSW!
                                                  4299 *
                                                  4300 **       Run the test: should cause a page fault
                                                  4301 *
00000BEE  920F 9FFF                     000021FF  4302          MVI   SUBTEST,X'0F'
00000BF2  B700 2D88                     00000F88  4303          LCTL  R0,R0,CRLREG0      Switch to DAT mode
00000BF6  B711 2D8C                     00000F8C  4304          LCTL  R1,R1,CTLREG1      Switch to DAT mode
00000BFA  8200 2A28                     00000C28  4305          LPSW  DATONPSW           Switch to DAT mode
00000BFE  4700 29FE                     00000BFE  4306 BEGDATON NOP   *                  (pad)
00000C02  4700 2A02                     00000C02  4307          NOP   *                  (pad)
00000C06  B20D 0000                     00000000  4308          PTLB  ,                  Purge Translation Lookaside Buffer
00000C0A  A9AC 0000                     00000000  4309 PFINSADR CLCLE R10,R12,0          Page Fault should occur on this instr
00000C0E  4710 2A0A                     00000C0A  4310          BC    B'0001',*-4        not finished?
00000C12  07000700 0700                           4311          CNOP  0,8                        (align to doubleword)
00000C18  00000000 00000000                       4312 LOGICERR DC    D'0'                       We should never reach here!
00000C20  00000000 00000000                       4313 SVPGMNEW DC    D'0'                       Original Program New PSW
00000C28  04080000 00000BFE                       4314 DATONPSW DC    XL4'04080000',A(BEGDATON)  Enable DAT PSW
                                                  4315 *
                                                  4316 **       Temporary Program New routine:
                                                  4317 **       Restore original Program New PSW
                                                  4318 *
00000C30  D207 0068 2A20      00000068  00000C20  4319 MYPGMNEW MVC   PGMNPSW,SVPGMNEW   Restore original Program New PSW
                                                  4320 *
                                                  4321 **       Verify Program Check occurred on expected instruction
                                                  4322 *
00000C36  9268 9FFF                     000021FF  4323          MVI   SUBTEST,X'68'
00000C3A  D503 2D74 002C      00000F74  0000002C  4324          CLC   =A(PFINSADR),PGMOPSW+4   Program Check where expected?
00000C40  4770 2C78                     00000E78  4325          BNE   FAILTEST                 No?! Something is VERY WRONG!
                                                  4326 *
                                                  4327 **       Verify Program Check was indeed a page fault
                                                  4328 *
00000C44  9211 9FFF                     000021FF  4329          MVI   SUBTEST,X'11'
00000C48  9511 008F                     0000008F  4330          CLI   PGMICODE+1,X'11'   Verify it's a Page Fault interrupt
00000C4C  4770 2C78                     00000E78  4331          BNE   FAILTEST           If not then something is VERY WRONG!
ASMA Ver. 0.2.1              CLCE-03-performance (Test CLCLE instructions)                          23 Aug 2022 21:53:43  Page    15

  LOC        OBJECT CODE       ADDR1     ADDR2    STMT

                                                  4333 *
                                                  4334 **       Verify Page Fault occurred on expected Page
                                                  4335 *
00000C50  9205 9FFF                     000021FF  4336          MVI   SUBTEST,X'05'
00000C54  5800 0090                     00000090  4337          L     R0,PGMTRX          Get where Page Fault occurred
00000C58  8800 000C                     0000000C  4338          SRL   R0,12
00000C5C  8900 000C                     0000000C  4339          SLL   R0,12

00000C60  8860 000C                     0000000C  4341          SRL   R6,12              Where Page Fault is expected
00000C64  8960 000C                     0000000C  4342          SLL   R6,12

00000C68  1506                                    4344          CLR   R0,R6              Page Fault occur on expected Page?
00000C6A  4770 2C78                     00000E78  4345          BNE   FAILTEST           No? Then something is very wrong!
                                                  4346 *
                                                  4347 **       Verify CLCL instruction registers were updated as expected
                                                  4348 *
00000C6E  9206 9FFF                     000021FF  4349          MVI   SUBTEST,X'06'
00000C72  55A0 2EF8                     000010F8  4350          CL    R10,CLCLPF         (op1 greater than starting value?)
00000C76  47D0 2C78                     00000E78  4351          BNH   FAILTEST
00000C7A  55C0 2F00                     00001100  4352          CL    R12,CLCLPF+4+4     (op2 greater than starting value?)
00000C7E  47D0 2C78                     00000E78  4353          BNH   FAILTEST

00000C82  9207 9FFF                     000021FF  4355          MVI   SUBTEST,X'07'
00000C86  15BD                                    4356          CLR   R11,R13            (same remaining lengths?)
00000C88  4770 2C78                     00000E78  4357          BNE   FAILTEST
00000C8C  55B0 2EFC                     000010FC  4358          CL    R11,CLCLPF+4       (op1 len less than starting value?)
00000C90  47B0 2C78                     00000E78  4359          BNL   FAILTEST
00000C94  55D0 2F04                     00001104  4360          CL    R13,CLCLPF+4+4+4   (op2 len less than starting value?)
00000C98  47B0 2C78                     00000E78  4361          BNL   FAILTEST

00000C9C  9208 9FFF                     000021FF  4363          MVI   SUBTEST,X'08'
00000CA0  55A0 2F98                     00001198  4364          CL    R10,ECLCLPF        (stop before end?)
00000CA4  47B0 2C78                     00000E78  4365          BNL   FAILTEST

00000CA8  9209 9FFF                     000021FF  4367          MVI   SUBTEST,X'09'
00000CAC  15A6                                    4368          CLR   R10,R6             (stop at or before expected page?)
00000CAE  4720 2C78                     00000E78  4369          BH    FAILTEST

00000CB2  9210 9FFF                     000021FF  4371          MVI   SUBTEST,X'10'
00000CB6  187A                                    4372          LR    R7,R10             (op1 stopped address)
00000CB8  1E7B                                    4373          ALR   R7,R11             (add remaining length)
00000CBA  1576                                    4374          CLR   R7,R6              (would remainder reach PF page?)
00000CBC  47D0 2C78                     00000E78  4375          BNH   FAILTEST

00000CC0  07FE                                    4377          BR    R14                Success!
ASMA Ver. 0.2.1              CLCE-03-performance (Test CLCLE instructions)                          23 Aug 2022 21:53:43  Page    16

  LOC        OBJECT CODE       ADDR1     ADDR2    STMT

                                                  4379 ***********************************************************************
                                                  4380 *        RPTSPEED                 Report instruction speed
                                                  4381 ***********************************************************************

00000CC2  50F0 2B98                     00000D98  4383 RPTSPEED ST    R15,RPTSAVE        Save return address
00000CC6  45F0 2B9C                     00000D9C  4384          BAL   R15,CALCDUR        Calculate duration
                                                  4385 *
00000CCA  4150 2DB0                     00000FB0  4386          LA    R5,OVERHEAD        Subtract overhead
00000CCE  4160 2DA8                     00000FA8  4387          LA    R6,DURATION        From raw timing
00000CD2  4170 2DA8                     00000FA8  4388          LA    R7,DURATION        Yielding true instruction timing
00000CD6  45F0 2BF0                     00000DF0  4389          BAL   R15,SUBDWORD       Do it
                                                  4390 *
00000CDA  98CD 2DA8                     00000FA8  4391          LM    R12,R13,DURATION   Convert to...
00000CDE  8CC0 000C                     0000000C  4392          SRDL  R12,12             ... microseconds
                                                  4393 *
00000CE2  4EC0 2DB8                     00000FB8  4394          CVD   R12,TICKSAAA       convert HIGH part to decimal
00000CE6  4ED0 2DC0                     00000FC0  4395          CVD   R13,TICKSBBB       convert LOW  part to decimal
                                                  4396 *
00000CEA  F877 2DC8 2DB8      00000FC8  00000FB8  4397          ZAP   TICKSTOT,TICKSAAA            Calculate...
00000CF0  FC75 2DC8 2D82      00000FC8  00000F82  4398          MP    TICKSTOT,=P'4294967296'      ...decimal...
00000CF6  FA77 2DC8 2DC0      00000FC8  00000FC0  4399          AP    TICKSTOT,TICKSBBB            ...microseconds
                                                  4400 *
00000CFC  D20B 2E03 2E1C      00001003  0000101C  4401          MVC   PRTLINE+43(L'EDIT),EDIT          (edit into...
00000D02  DE0B 2E03 2DCB      00001003  00000FCB  4402          ED    PRTLINE+43(L'EDIT),TICKSTOT+3     ...print line)






                                                  4404          RAWIO 4,FAIL=FAILIO      Print elapsed time on console
00000D08  9200 300E                     0000000E  4405+         MVI   IOCBSC,X'00'          Clear SC information
00000D0C  D201 300A 3006      0000000A  00000006  4406+         MVC   IOCBST,IOCBZERO       Clear accumulated status
00000D12  5810 3000                     00000000  4407+         L     1,IOCBDID             Remember the device ID with which I am working
                                                  4408+* Initiate Subchannel-based input/output operation
00000D16  5840 3018                     00000018  4409+         $L    4,IOCBORB             Locate the ORB for the channel subsystem
00000D1A  B233 4000                     00000000  4410+         SSCH  0(4)                  Initiate the I/O operation
00000D1E  A774 00A5                     00000E68  4411+         $BC   B'0111',FAILIO        ..Start function failed, report/handle the error
00000D22  5840 3020                     00000020  4412+         $L    4,IOCBIRB             Locate the IRB storage area
00000D26                      00000000            4413+         USING IRB,4                 Make it addressable

                                                  4415+* Wait for I/O operation to present status via an interruption
00000D26                                          4416+IOWT0007 DS    0H  Wait for I/O to complete
00000D26  D207 2B48 0078      00000D48  00000078  4418+         MVC   IOS0008(8),120(0)               Save Input/Output new PSW
00000D2C  D207 0078 2B40      00000078  00000D40  4419+         MVC   120(8,0),ION0008               Establish Input/Ouput new PSW
00000D32  8200 2B38                     00000D38  4420+         $LPSW WPSW0008                       Wait for event
00000D38  020A0000 00000000                       4421+WPSW0008 PSW   2,0,2,0,0                      Wait for event
00000D40  00082000 00000D50                       4422+ION0008  PSW   0,0,0,32,IRST0008,24                I/O New PSW: cc==2
00000D48  00000000 00000000                       4423+IOS0008  DC    XL8'00'
                                                  4424+* Handle input/output interruption
00000D50                                          4425+IRST0008 DS    0H
00000D50  D207 0078 2B48      00000078  00000D48  4426+         MVC   120(8,0),IOS0008             Restore input/output new PSW
ASMA Ver. 0.2.1              CLCE-03-performance (Test CLCLE instructions)                          23 Aug 2022 21:53:43  Page    17

  LOC        OBJECT CODE       ADDR1     ADDR2    STMT

                                                  4427+* Process the interruption...
                                                  4428+* Validate interruption is for the expected subchannel
00000D56  5510 00B8                     000000B8  4429+         CL    1,IOSSID              Is this the device for which I am waiting?
00000D5A  A774 FFE6                     00000D26  4430+         $BNE  IOWT0007              ..No, continue waiting for it
                                                  4431+* Accumulate interruption information from IRB
00000D5E  B235 4000                     00000000  4432+         TSCH  0(4)                  Retrive interrupt information
00000D62  A744 FFE2                     00000D26  4433+         $BC   B'0100',IOWT0007      CC1 (not status pending), wait for it to arrive
00000D66  A714 0081                     00000E68  4434+         $BC   B'0001',FAILIO        CC3 (not operational), an error then
                                                  4435+*                                    CC0 (status was pending), accumulate the status
00000D6A  D600 300E 4003      0000000E  00000003  4436+         OC    IOCBSC,IRBSCSW+SCSW2  Accumulate status control
00000D70  D601 300A 4008      0000000A  00000008  4437+         OC    IOCBST,IRBSCSW+SCSWUS Accumulate device and channel status
00000D76  9104 300E                     0000000E  4438+         TM    IOCBSC,SCSWSPRI       Primary subchannel status?
00000D7A  A7E4 FFD6                     00000D26  4439+         $BNO  IOWT0007              ..No, wait for primary status
00000D7E  D203 3010 4004      00000010  00000004  4440+         MVC   IOCBSCCW,IRBSCSW+SCSWCCW  CCW address
00000D84  D201 3016 400A      00000016  0000000A  4441+         MVC   IOCBRCNT,IRBSCSW+SCSWCNT  Residual count
                                                  4442+* Test for errors as specified in the IOCB
00000D8A  910C 300A                     0000000A  4443+         TM    IOCBUS,CSWCE+CSWDE    Channel end and device end both accumulated?
00000D8E  A7E4 006D                     00000E68  4444+         $BNO  FAILIO                Hunh? No CE and DE but do have primary status!
                                                  4445+* Input/Output operation successful


00000D92  58F0 2B98                     00000D98  4447          L     R15,RPTSAVE        Restore return address
00000D96  07FF                                    4448          BR    R15                Return to caller

00000D98  00000000                                4450 RPTSAVE  DC    F'0'               R15 save area
ASMA Ver. 0.2.1              CLCE-03-performance (Test CLCLE instructions)                          23 Aug 2022 21:53:43  Page    18

  LOC        OBJECT CODE       ADDR1     ADDR2    STMT

                                                  4452 ***********************************************************************
                                                  4453 *        CALCDUR                  Calculate DURATION
                                                  4454 ***********************************************************************

00000D9C  50F0 2BE0                     00000DE0  4456 CALCDUR  ST    R15,CALCRET        Save return address
00000DA0  9057 2BE4                     00000DE4  4457          STM   R5,R7,CALCWORK     Save work registers
                                                  4458 *
00000DA4  9867 2D98                     00000F98  4459          LM    R6,R7,BEGCLOCK     Remove CPU number from clock value
00000DA8  8C60 0006                     00000006  4460          SRDL  R6,6                            "
00000DAC  8D60 0006                     00000006  4461          SLDL  R6,6                            "
00000DB0  9067 2D98                     00000F98  4462          STM   R6,R7,BEGCLOCK                  "
                                                  4463 *
00000DB4  9867 2DA0                     00000FA0  4464          LM    R6,R7,ENDCLOCK     Remove CPU number from clock value
00000DB8  8C60 0006                     00000006  4465          SRDL  R6,6                            "
00000DBC  8D60 0006                     00000006  4466          SLDL  R6,6                            "
00000DC0  9067 2DA0                     00000FA0  4467          STM   R6,R7,ENDCLOCK                  "
                                                  4468 *
00000DC4  4150 2D98                     00000F98  4469          LA    R5,BEGCLOCK        Starting time
00000DC8  4160 2DA0                     00000FA0  4470          LA    R6,ENDCLOCK        Ending time
00000DCC  4170 2DA8                     00000FA8  4471          LA    R7,DURATION        Difference
00000DD0  45F0 2BF0                     00000DF0  4472          BAL   R15,SUBDWORD       Calculate duration
                                                  4473 *
00000DD4  9857 2BE4                     00000DE4  4474          LM    R5,R7,CALCWORK     Restore work registers
00000DD8  58F0 2BE0                     00000DE0  4475          L     R15,CALCRET        Restore return address
00000DDC  07FF                                    4476          BR    R15                Return to caller

00000DE0  00000000                                4478 CALCRET  DC    F'0'               R15 save area
00000DE4  00000000 00000000                       4479 CALCWORK DC    3F'0'              R5-R7 save area




                                                  4481 ***********************************************************************
                                                  4482 *        SUBDWORD                 Subtract two doublewords
                                                  4483 *        R5 --> subtrahend, R6 --> minuend, R7 --> result
                                                  4484 ***********************************************************************

00000DF0  90AD 2C18                     00000E18  4486 SUBDWORD STM   R10,R13,SUBDWSAV   Save registers
                                                  4487 *
00000DF4  98AB 5000                     00000000  4488          LM    R10,R11,0(R5)      Subtrahend  (value to subtract)
00000DF8  98CD 6000                     00000000  4489          LM    R12,R13,0(R6)      Minuend     (what to subtract FROM)
00000DFC  1FDB                                    4490          SLR   R13,R11            Subtract LOW part
00000DFE  47B0 2C06                     00000E06  4491          BNM   *+4+4              (branch if no borrow)
00000E02  5FC0 2D78                     00000F78  4492          SL    R12,=F'1'          (otherwise do borrow)
00000E06  1FCA                                    4493          SLR   R12,R10            Subtract HIGH part
00000E08  90CD 7000                     00000000  4494          STM   R12,R13,0(R7)      Store results
                                                  4495 *
00000E0C  98AD 2C18                     00000E18  4496          LM    R10,R13,SUBDWSAV   Restore registers
00000E10  07FF                                    4497          BR    R15                Return to caller

00000E18  00000000 00000000                       4499 SUBDWSAV DC    2D'0'              R10-R13 save area
ASMA Ver. 0.2.1              CLCE-03-performance (Test CLCLE instructions)                          23 Aug 2022 21:53:43  Page    19

  LOC        OBJECT CODE       ADDR1     ADDR2    STMT

                                                  4501 ***********************************************************************
                                                  4502 *        Program Initialization
                                                  4503 ***********************************************************************

00000E28                                          4505 INIT     DS     0H              Program Initialization

00000E28  4130 2CE8                     00000EE8  4507          LA     R3,IOCB_009     Point to IOCB
00000E2C  5880 3018                     00000018  4508          L      R8,IOCBORB      Point to ORB

00000E30  45F0 2C88                     00000E88  4510          BAL    R15,IOINIT      Initialize the CPU for I/O operations
00000E34  45F0 2C96                     00000E96  4511          BAL    R15,ENADEV      Enable our device making ready for use
00000E38  07FE                                    4512          BR     R14             Return to caller





                                                  4514 ***********************************************************************
                                                  4515 *        Verify CLCL ending register values
                                                  4516 * R10-R12 = actual ending values, R5 --> expected ending values
                                                  4517 ***********************************************************************

00000E3A  90AD 2FA8                     000011A8  4519 ENDCLCL  STM    R10,R13,CLCLEND     Save actual ending register values
00000E3E  D50F 5000 2FA8      00000000  000011A8  4520          CLC    0(4*4,R5),CLCLEND   Do they have the expected values?
00000E44  4770 2C78                     00000E78  4521          BNE    FAILTEST            If not then the test has failed
00000E48  07FF                                    4522          BR     R15                 Otherwise return to caller

ASMA Ver. 0.2.1              CLCE-03-performance (Test CLCLE instructions)                          23 Aug 2022 21:53:43  Page    20

  LOC        OBJECT CODE       ADDR1     ADDR2    STMT

                                                  4525 ***********************************************************************
                                                  4526 *        Normal completion or Abnormal termination PSWs
                                                  4527 ***********************************************************************





                                                  4529 EOJ      DWAITEND LOAD=YES          Normal completion
00000E4A                                          4531+EOJ      DS    0H
00000E4A  8200 2C50                     00000E50  4532+         LPSW  DWAT0010
00000E50  000A0000 00000000                       4533+DWAT0010 PSW   0,0,2,0,X'000000'





                                                  4535 FAILDEV  DWAIT LOAD=YES,CODE=01     ENADEV failed
00000E58                                          4536+FAILDEV  DS    0H
00000E58  8200 2C60                     00000E60  4537+         LPSW  DWAT0011
00000E60  000A0000 00010001                       4538+DWAT0011 PSW   0,0,2,0,X'010001'





                                                  4540 FAILIO   DWAIT LOAD=YES,CODE=02     RAWIO failed
00000E68                                          4541+FAILIO   DS    0H
00000E68  8200 2C70                     00000E70  4542+         LPSW  DWAT0012
00000E70  000A0000 00010002                       4543+DWAT0012 PSW   0,0,2,0,X'010002'





                                                  4545 FAILTEST DWAIT LOAD=YES,CODE=BAD    Abnormal termination
00000E78                                          4546+FAILTEST DS    0H
00000E78  8200 2C80                     00000E80  4547+         LPSW  DWAT0013
00000E80  000A0000 00010BAD                       4548+DWAT0013 PSW   0,0,2,0,X'010BAD'
ASMA Ver. 0.2.1              CLCE-03-performance (Test CLCLE instructions)                          23 Aug 2022 21:53:43  Page    21

  LOC        OBJECT CODE       ADDR1     ADDR2    STMT

                                                  4550 ***********************************************************************
                                                  4551 *        Initialize the CPU for I/O operations
                                                  4552 ***********************************************************************


                                                  4554 IOINIT   IOINIT ,
00000E88  B766 2C90                     00000E90  4555+IOINIT   LCTL  6,6,IOMK0014       Enable subchannel subclasses for interruptions
00000E8C  47F0 2C94                     00000E94  4556+         B     IOMK0014+4
00000E90                                          4557+IOMK0014 DS    0F
00000E90  FF000000                                4558+         DC    XL4'FF000000'         All subchannel subclasses enabled


00000E94  07FF                                    4560          BR    R15                Return to caller






                                                  4562 ***********************************************************************
                                                  4563 *        Enable the device, making it ready for use
                                                  4564 ***********************************************************************


                                                  4566 ENADEV   ENADEV ENAOKAY,FAILDEV,REG=4
00000E96  5810 2CDC                     00000EDC  4567+ENADEV   L     1,FIND0015
00000E9A  5840 3028                     00000028  4568+         $L    4,IOCBSIB          Locate where the SCHIB is to be stored
00000E9E                      00000000            4569+         USING SCHIB,4
00000E9E                                          4570+FINL0015 DS    0H   Retrieve Subchannel Information Block for desired device number
00000E9E  B234 4000                     00000000  4571+         STSCH 0(4)               Store the SCHIB for first subchannel
00000EA2  A774 FFDB                     00000E58  4572+         $BC   B'0111',FAILDEV    Subchannel does not exist and device number not found
00000EA6  9101 4005                     00000005  4573+         TM    PMCW1_8,PMCWV      Is the subchannel device number valid?
00000EAA  A784 0011                     00000ECC  4574+         $BZ   FINN0015           ..No, check the next subchannel
00000EAE  D501 4006 3004      00000006  00000004  4575+         CLC   PMCWDNUM,IOCBDEV   Is this the device number being sought?
00000EB4  A774 000C                     00000ECC  4576+         $BNE  FINN0015           ..No, check the next subchannel
                                                  4577+* Subchannel found!
00000EB8  5010 3000                     00000000  4578+         ST    1,IOCBDID          Remember the subchannel so I/O can be done to it.
00000EBC  9680 4005                     00000005  4579+         OI    PMCW1_8,PMCWE      Make sure it is enabled so I/O requests accepted
00000EC0  B232 4000                     00000000  4580+         MSCH  0(4)               Enable the subchannel to the channel sub-system
00000EC4  A784 0010                     00000EE4  4581+         $BC   B'1000',ENAOKAY    CC0 (SCHIB updated), device is ready.
00000EC8  A7F4 FFC8                     00000E58  4582+         $B    FAILDEV            CC1,CC2,CC3 (SCHIB update failed), quit
00000ECC                                          4583+FINN0015 DS    0H  Advance to next subchannel
00000ECC  4110 1001                     00000001  4584+         LA    1,1(0,1)           Advance to next subchannel
00000ED0  5510 2CE0                     00000EE0  4585+         CL    1,FINM0015         Beyond maximum subchannel
00000ED4  A7D4 FFE5                     00000E9E  4586+         $BNH  FINL0015           ..No, examine the next subchannel
00000ED8  A724 FFC0                     00000E58  4587+         $BH   FAILDEV            ..Yes, failed to enable the device
00000EDC                                          4588+         DROP  4                  Forget SCHIB addressing
00000EDC  00010000                                4589+FIND0015 DC    A(X'00010000')     First subchannel subsystem ID
00000EE0  0001FFFF                                4590+FINM0015 DC    A(X'0001FFFF')     Last subchannel subsystem ID


00000EE4  07FF                                    4592 ENAOKAY  BR    R15                Return to caller
ASMA Ver. 0.2.1              CLCE-03-performance (Test CLCLE instructions)                          23 Aug 2022 21:53:43  Page    22

  LOC        OBJECT CODE       ADDR1     ADDR2    STMT

                                                  4594 ***********************************************************************
                                                  4595 *         Structure used by RAWIO identifying
                                                  4596 *         the device and operation being performed
                                                  4597 ***********************************************************************


                                                  4599 IOCB_009 IOCB  X'009',CCW=CONPGM
00000EE8  00000000                                4600+IOCB_009 DC    A(0)            +0 Device Identifier (supplied by ENADEV macro)
00000EEC  0009                                    4601+         DC    AL2(X'009')     +4 Device address or device number
00000EEE  0000                                    4602+         DC    H'0'            +6 Must be zeros
00000EF0  D3                                      4603+         DC    AL1(X'D3')      +8 Default detected unit errors
00000EF1  3F                                      4604+         DC    AL1(X'3F')      +9 Default detected channel errors
00000EF2  0000                                    4605+         DC    HL2'0'          +10 Accumulated unit and channel errors
00000EF4  0000                                    4606+         DC    HL2'0'          +12 Tested unit and channel status
00000EF6  00                                      4607+         DC    XL1'00'         +14 Accumulated subchannel status control from SCSW
00000EF7  80                                      4608+         DC    XL1'80'         +15 Default unsoliticed wait condition
00000EF8  00000000                                4609+         DC    F'0'            +16 I/O status CCW address
00000EFC  00000000                                4610+         DC    F'0'            +20 residual count
00000F00  00000F58                                4611+         DC    A(IORB0016)     +24  Address where ORB is located
00000F04  00000000                                4612+         DC    A(0)            +28  reserved
00000F08  00000F18                                4613+         DC    A(IIRB0016)     +32 Address where IRB stored
00000F0C  00000000                                4614+         DC    A(0)            +36 reserved
00000F10  00000F18                                4615+         DC    A(IIRB0016)     +40 Address where SCHIB stored
00000F14  00000000                                4616+         DC    A(0)            +44 reserved
00000F18  00000000 00000000                       4617+IIRB0016 DC    16F'0'              Embedded shared IRB and SCHIB area
00000F58                                          4619+IORB0016 DS    0XL12
00000F58  00000000                                4620+         DC    A(0)                         Word 0 - Interruption Parameter
00000F5C  00                                      4621+         DC    AL1((0)*16+B'0000')          Word 1, bits 0-7
00000F5D  80                                      4622+         DC    BL1'10000000'                Word 1, bits 8-15
00000F5E  FF                                      4623+         DC    AL1(255)                     Word 1, bits 16-23
00000F5F  00                                      4624+         DC    BL1'00000000'                 Word 1, bits 24-31
00000F60  00000FD0                                4625+         DC    AL4(CONPGM)                  Word 2 - CCW address
ASMA Ver. 0.2.1              CLCE-03-performance (Test CLCLE instructions)                          23 Aug 2022 21:53:43  Page    23

  LOC        OBJECT CODE       ADDR1     ADDR2    STMT

                                                  4627 ***********************************************************************
                                                  4628 *        Working Storage
                                                  4629 ***********************************************************************


00000F64                                          4631          LTORG ,                Literals pool
00000F64  00003000                                4632                =A(SEGTABLS)
00000F68  00003080                                4633                =A(PAGETABS)
00000F6C  00001000                                4634                =A(PAGE)
00000F70  00005000                                4635                =A(PFPGBYTS)
00000F74  00000C0A                                4636                =A(PFINSADR)
00000F78  00000001                                4637                =F'1'
00000F7C  C3D3C3D3 C540                           4638                =CL6'CLCLE'
00000F82  04294967 296C                           4639                =P'4294967296'

                              00000400  00000001  4641 K        EQU   1024             One KB
                              00001000  00000001  4642 PAGE     EQU   (4*K)            Size of one page
                              00010000  00000001  4643 K64      EQU   (64*K)           64 KB
                              00100000  00000001  4644 MB       EQU   (K*K)             1 MB

                              000021FE  00000001  4646 TESTADDR EQU   (2*PAGE+X'200'-2)  Where test/subtest numbers will go
                              000021FD  00000001  4647 TIMEADDR EQU   (TESTADDR-1)       Address of timing tests option flag

                              00200000  00000001  4649 MAINSIZE EQU   (2*MB)                   Minimum required storage size
                              00000020  00000001  4650 NUMPGTBS EQU   ((MAINSIZE+K64-1)/K64)   Number of Page Tables needed
                              00000002  00000001  4651 NUMSEGTB EQU   ((NUMPGTBS*4)/(16*4))    Number of Segment Tables
                              00003000  00000001  4652 SEGTABLS EQU   (3*PAGE)                 Segment Tables Origin
                              00003080  00000001  4653 PAGETABS EQU   (SEGTABLS+(NUMPGTBS*4))  Page Tables Origin
00000F88  00B00060                                4654 CRLREG0  DC    0A(0),XL4'00B00060'      Control Register 0
00000F8C  00003002                                4655 CTLREG1  DC    A(SEGTABLS+NUMSEGTB)     Control Register 1

00000F90  00002710                                4657 NUMLOOPS DC    F'10000'         10,000 * 100 = 1,000,000

00000F98  BBBBBBBB BBBBBBBB                       4659 BEGCLOCK DC    0D'0',8X'BB'     Begin
00000FA0  EEEEEEEE EEEEEEEE                       4660 ENDCLOCK DC    0D'0',8X'EE'     End
00000FA8  DDDDDDDD DDDDDDDD                       4661 DURATION DC    0D'0',8X'DD'     Diff
00000FB0  FFFFFFFF FFFFFFFF                       4662 OVERHEAD DC    0D'0',8X'FF'     Overhead

00000FB8  00000000 0000000C                       4664 TICKSAAA DC    PL8'0'           Clock ticks high part
00000FC0  00000000 0000000C                       4665 TICKSBBB DC    PL8'0'           Clock ticks low part
00000FC8  00000000 0000000C                       4666 TICKSTOT DC    PL8'0'           Total clock ticks

00000FD0  09000044 00000FD8                       4668 CONPGM   CCW1  X'09',PRTLINE,0,PRTLNG
00000FD8  40404040 40404040                       4669 PRTLINE  DC    C'         1,000,000 iterations of XXXXX'
00000FFE  40A39696 9240F9F9                       4670          DC    C' took 999,999,999 microseconds'
                              00000044  00000001  4671 PRTLNG   EQU   *-PRTLINE
0000101C  40202020 6B202020                       4672 EDIT     DC    X'402020206B2020206B202120'
ASMA Ver. 0.2.1              CLCE-03-performance (Test CLCLE instructions)                          23 Aug 2022 21:53:43  Page    24

  LOC        OBJECT CODE       ADDR1     ADDR2    STMT

                                                  4674 ***********************************************************************
                                                  4675 *        CLC Test Parameters:   A(operand-1),A(operand-2)
                                                  4676 ***********************************************************************

00001028  00010000 00110000                       4678 CLC1     DC    A(1*K64),A(MB+(1*K64))                       both equal
00001030  00010000 00110000                       4679 CLC2     DC    A(1*K64),A(MB+(1*K64))                       both equal
00001038  0000FFF4 0010FFDE                       4680 CLCBOTH  DC    A(1*K64-12),A(MB+(1*K64)-34)                 both equal
00001040  00010000 0010FFDE                       4681 CLCOP2   DC    A(1*K64),A(MB+(1*K64)-34)                    both equal

00001048  00020000 00120000                       4683 CLC4     DC    A(2*K64),A(MB+(2*K64))                         op1 HIGH
00001050  00030000 00130000                       4684 CLC8     DC    A(3*K64),A(MB+(3*K64))                         op1 LOW!
00001058  00040000 00140000                       4685 CLC256   DC    A(4*K64),A(MB+(4*K64))                         op1 HIGH
00001060  0004FFF4 00150000                       4686 CLCOP1   DC    A(5*K64-12),A(MB+(5*K64))                      op1 HIGH


                              00000000  00003000  4688 CLCLetal CSECT ,
ASMA Ver. 0.2.1              CLCE-03-performance (Test CLCLE instructions)                          23 Aug 2022 21:53:43  Page    25

  LOC        OBJECT CODE       ADDR1     ADDR2    STMT

                                                  4690 ***********************************************************************
                                                  4691 *        CLCL Test Parameters
                                                  4692 ***********************************************************************

00001068  00060000 00000001                       4694 CLCL1    DC    A(6*K64),A(1),A(MB+(6*K64)),A(1)             both equal


00001078  00060000 00000002                       4696 CLCL2    DC    A(6*K64),A(2),A(MB+(6*K64)),A(2)             both equal


00001088  00060000 00000100                       4698 CLCL256  DC    A(6*K64),A(256),A(MB+(6*K64)),A(256)         both equal


00001098  00060000 00000400                       4700 CLCL1K   DC    A(6*K64),A(K),A(MB+(6*K64)),A(K)             both equal


000010A8  0005FFF4 00010000                       4702 CLCLBOTH DC    A(6*K64-12),A(K64),A(MB+(6*K64)-34),A(K64)   both equal


000010B8  00060000 00001000                       4704 CLCLOP2  DC    A(6*K64),A(PAGE),A(MB+(6*K64)-34),A(K64)     both equal


000010C8  00070000 00000004                       4706 CLCL4    DC    A(7*K64),A(4),A(MB+(7*K64)),A(4)               op1 HIGH


000010D8  00080000 00000008                       4708 CLCL8    DC    A(8*K64),A(8),A(MB+(8*K64)),A(8)               op1 LOW!


000010E8  0008FFF4 00010000                       4710 CLCLOP1  DC    A(9*K64-12),A(K64),A(MB+(9*K64)),A(PAGE)       op1 HIGH


000010F8  000A0000 00010000                       4712 CLCLPF   DC    A(10*K64),A(K64),A(MB+(10*K64)),A(K64)       page fault
ASMA Ver. 0.2.1              CLCE-03-performance (Test CLCLE instructions)                          23 Aug 2022 21:53:43  Page    26

  LOC        OBJECT CODE       ADDR1     ADDR2    STMT

                                                  4714 ***********************************************************************
                                                  4715 *        CLCL Expected Ending Register Values
                                                  4716 ***********************************************************************

00001108  00060001 00000000                       4718 ECLCL1   DC    A(6*K64+1),A(0),A(MB+(6*K64)+1),A(0)         both equal


00001118  00060002 00000000                       4720 ECLCL2   DC    A(6*K64+2),A(0),A(MB+(6*K64)+2),A(0)         both equal


00001128  00060100 00000000                       4722 ECLCL256 DC    A(6*K64+256),A(0),A(MB+(6*K64)+256),A(0)     both equal


00001138  00060400 00000000                       4724 ECLCL1K  DC    A(6*K64+K),A(0),A(MB+(6*K64)+K),A(0)         both equal


00001148  0006FFF4 00000000                       4726 ECLCLBTH DC    A(6*K64-12+K64),A(0),A(MB+(6*K64)-34+K64),A(0) bth equl


00001158  00061000 00000000                       4728 ECLCLOP2 DC    A(6*K64+PAGE),A(0),A(MB+(6*K64)-34+K64),A(0) both equal


00001168  00070003 00000001                       4730 ECLCL4   DC    A(7*K64+4-1),A(1),A(MB+(7*K64)+4-1),A(1)       op1 HIGH


00001178  00080007 00000001                       4732 ECLCL8   DC    A(8*K64+8-1),A(1),A(MB+(8*K64)+8-1),A(1)       op1 LOW!


00001188  0009FFF3 00000001                       4734 ECLCLOP1 DC    A(9*K64-12+K64-1),A(1),A(MB+(9*K64)+PAGE),A(0) op1 HIGH


00001198  000B0000 00000000                       4736 ECLCLPF  DC    A(10*K64+K64),A(0),A(MB+(10*K64)+K64),A(0)   page fault



000011A8  00000000 00000000                       4738 CLCLEND  DC    4F'0'          (actual ending register values)
                              00000005  00000001  4739 PFPAGE   EQU   5              (page the Page Fault should occur on)
                              00005000  00000001  4740 PFPGBYTS EQU   (PFPAGE*PAGE)  (number of bytes into operand-1)
ASMA Ver. 0.2.1              CLCE-03-performance (Test CLCLE instructions)                          23 Aug 2022 21:53:43  Page    27

  LOC        OBJECT CODE       ADDR1     ADDR2    STMT

                                                  4742 ***********************************************************************
                                                  4743 *        Fixed storage locations
                                                  4744 ***********************************************************************





000011B8                      000011B8  000021FD  4746          ORG   CLCLetal+TIMEADDR      (s/b @ X'21FD')

000021FD  00                                      4748 TIMEOPT  DC    X'00'      Set to non-zero to run timing tests









000021FE                      000021FE  000021FE  4750          ORG   CLCLetal+TESTADDR      (s/b @ X'21FE', X'21FF')

000021FE  00                                      4752 TESTNUM  DC    X'00'      Test number of active test
000021FF  00                                      4753 SUBTEST  DC    X'00'      Active test sub-test number









00002200                      00002200  00003000  4755          ORG   CLCLetal+SEGTABLS      (s/b @ X'3000')

00003000  00                                      4757 DATTABS  DC    X'00'      Segment and Page Tables will go here...
ASMA Ver. 0.2.1              CLCE-03-performance (Test CLCLE instructions)                          23 Aug 2022 21:53:43  Page    28

  LOC        OBJECT CODE       ADDR1     ADDR2    STMT

                                                  4759 ***********************************************************************
                                                  4760 *        IOCB DSECT
                                                  4761 ***********************************************************************

                                                  4763          DSECTS NAME=IOCB
                                                  4765+IOCB     DSECT
                                                  4766+*     Field usage by: CH SC Description (R->program read-only, X->program read/write)
00000000                                          4767+IOCBDID  DS    0F  +0     R  Device Identifier - Subsystem ID for channel subsystem
00000000  0000                                    4768+         DS    H   +0  R       reserved - must be zeros
00000002  0000                                    4769+IOCBDV   DS    H   +2  R       Channel Unit Device address of I/O operation
00000004  0000                                    4770+IOCBDEV  DS    H   +4  X  X  Device address or device number (R after ENADEV)
00000006  0000                                    4771+IOCBZERO DS    H   +6  R  R  Must be zeros
00000008  00                                      4772+IOCBUM   DS    X   +8  X  X  Unit status test mask
00000009  00                                      4773+IOCBCM   DS    X   +9  X  X  Channel status test mask
0000000A                                          4774+IOCBST   DS    0H  +10 X  X  Input/Output unit and channel status accumulation
0000000A  00                                      4775+IOCBUS   DS    X   +10 R  R  Accumulated unit status
0000000B  00                                      4776+IOCBCS   DS    X   +11 R  R  Accumulated channel status
0000000C  00                                      4777+IOCBUT   DS    X   +14 R  R  Used to test unit status
0000000D  00                                      4778+IOCBCT   DS    X   +13 R  R  Used to test channel status
0000000E  00                                      4779+IOCBSC   DS    X   +14    R  Accumulted subchanel status control
0000000F  00                                      4780+IOCBWAIT DS    X   +15 X  X  Recognized unsolicited interruption unit status events
00000010  00000000                                4781+IOCBSCCW DS    A   +16 R  R  I/O status CCW address
00000014                                          4782+IOCBSCNT DS    0F  +20 R  R  I/O status residual count as a positive full word
00000014  0000                                    4783+         DS    H   +20 R     reserved must be zeros
00000016  0000                                    4784+IOCBRCNT DS    H   +22 R     I/O status residual count as an unsigned halfword
00000018                                          4785+IOCBCAW  DS    0A  +24 X     Channel Address word
00000018  00000000 00000000                       4786+IOCBORB  DS    AD  +24    X  Address of the ORB for channel subsystem I/O
00000020  00000000 00000000                       4787+IOCBIRB  DS    AD  +32    X  Channel subsystem IRB address
00000028  00000000 00000000                       4788+IOCBSIB  DS    AD  +40    X  Channel subsystem SCHIB address
                              00000030  00000001  4789+IOCBL    EQU   *-IOCB  Length of IOCB control block (48) without embedded structures
ASMA Ver. 0.2.1              CLCE-03-performance (Test CLCLE instructions)                          23 Aug 2022 21:53:43  Page    29

  LOC        OBJECT CODE       ADDR1     ADDR2    STMT

                                                  4791 ***********************************************************************
                                                  4792 *        ORB DSECT
                                                  4793 ***********************************************************************

                                                  4795          DSECTS NAME=ORB
                                                  4797+ORB      DSECT
00000000  00000000                                4798+ORBPARM  DC    F'0'     Word 0, bits 0-31

00000004  00                                      4800+ORB1_0   DC    X'00'    Word 1, bits 0-7
                              000000F0  00000001  4801+ORBKEYM  EQU   X'F0'    Word 1, bits 0-3   - Storage Key Mask
                              00000008  00000001  4802+ORBS     EQU   X'08'    Word 1, bit 4      - Suspend Control
                              00000004  00000001  4803+ORBC     EQU   X'04'    Word 1, bit 5      - Streaming Mode Control
                              00000002  00000001  4804+ORBM     EQU   X'02'    Word 1, bit 6      - Modification Control
                              00000001  00000001  4805+ORBY     EQU   X'01'    Word 1, bit 7      - Synchronization Control

00000005  00                                      4807+ORB1_8   DC    X'00'    Word 1, bits 8-15
                              00000080  00000001  4808+ORBF     EQU   X'80'    Word 1, bit 8      - CCW Format-Control
                              00000040  00000001  4809+ORBP     EQU   X'40'    Word 1, bit 9      - Pre-fetch control
                              00000020  00000001  4810+ORBI     EQU   X'20'    Word 1, bit 10     - Initial-status Interruption Control
                              00000010  00000001  4811+ORBA     EQU   X'10'    Word 1, bit 11     - Address Limit Checking Control
                              00000008  00000001  4812+ORBU     EQU   X'08'    Word 1, bit 12     - Suppress-suspended-interruption control
                              00000004  00000001  4813+ORBB     EQU   X'04'    Word 1, bit 13     - Channel-Program-Type Control
                              00000002  00000001  4814+ORBH     EQU   X'02'    Word 1, bit 14     - Format 2-IDAW Control
                              00000001  00000001  4815+ORBT     EQU   X'01'    Word 1, bit 15     - 2K-IDAW control
00000006  00                                      4816+ORBLPM   DC    X'00'    Word 1, bits 16-23 - Logical Path Mask
00000007  00                                      4817+ORRB1_24 DC    X'00'    Word 1, bits 24-31
                              00000080  00000001  4818+ORBL     EQU   X'80'    Word 1, bit 24     - Incorrect Length Suppression Mode
                              0000007F  00000001  4819+ORBRSV3  EQU   X'7F'    Word 1, bits 25-31 - reserved must be zeros
                              00000040  00000001  4820+ORBD     EQU   X'40'    Word 1, bit 25     - MIDAW Addressing Control
                              0000003E  00000001  4821+ORBRSV26 EQU   X'3E'    Word 1, bits 26-30 - reserved must be zeros
                              0000007E  00000001  4822+ORBRSV25 EQU   X'7E'    Word 1, bits 25-30 - reserved must be zeros
                              00000001  00000001  4823+ORBX     EQU   X'01'    Word 1, bit 31     - ORB-extension control

00000008  00000000                                4825+ORBCCW   DC    A(0)     Word 2, bits 1-31  - Channel Program Address
                              00000080  00000001  4826+ORBRSV4  EQU   X'80'    Word 2, bit 0      - reserved must be zero
                              0000000C  00000001  4827+ORBLEN   EQU   *-ORB Length of standard ORB
                                                  4828+* Extended ORB fields
0000000C  00                                      4829+ORBCSS   DC    X'00'    Word 3, bits 0-7   - Channel Subsystem Priority
0000000D  00                                      4830+ORBRSV5  DC    X'00'    Word 3, bits 8-15  - reserved must be zeros
0000000E                                          4831+ORBPGM   DC    0X'00'   Word 3, bits 16-23 - Transport mode reserves for program use
0000000E  00                                      4832+ORBCU    DC    X'00'    Word 3, bits 16-23 - Control Unit Priority
0000000F  00                                      4833+ORBRSV6  DC    X'00'    Word 3, bits 24-31 - reserved must be zeros
00000010  00000000 00000000                       4834+ORBRSV7  DC    XL16'00' Words 4-7          - reserved must be zeros
                              00000020  00000001  4835+ORBXLEN  EQU   *-ORB Length of extended ORB

ASMA Ver. 0.2.1              CLCE-03-performance (Test CLCLE instructions)                          23 Aug 2022 21:53:43  Page    30

  LOC        OBJECT CODE       ADDR1     ADDR2    STMT

                                                  4838 ***********************************************************************
                                                  4839 *        IRB DSECT
                                                  4840 ***********************************************************************

                                                  4842          DSECTS NAME=IRB
                                                  4844+IRB      DSECT Interruption          Response Block
00000000  00000000 00000000                       4845+IRBSCSW  DC    XL12'00' Words 0-2 - Subchannel Status Word (Defined by DSECT SCSW)
0000000C  00000000 00000000                       4846+IRBESW   DC    XL20'00' Words 3-7 - Extended Status Word
00000020  00000000 00000000                       4847+IRBECW   DC    XL32'00' Words 8-15 - Extended Control Word
                              00000040  00000001  4848+IRBL     EQU   *-IRB    IRB Length
00000040  00000000 00000000                       4849+IRBEMW   DC    XL32'00' Words 16-23 - Extended Measurement Word
                              00000060  00000001  4850+IRBXL    EQU   *-IRB    Extended IRB Length

ASMA Ver. 0.2.1              CLCE-03-performance (Test CLCLE instructions)                          23 Aug 2022 21:53:43  Page    31

  LOC        OBJECT CODE       ADDR1     ADDR2    STMT

                                                  4853 ***********************************************************************
                                                  4854 *        SCSW DSECT
                                                  4855 ***********************************************************************

                                                  4857          DSECTS NAME=SCSW
                                                  4859+SCSW     DSECT Subchannel          Status Word
00000000  00                                      4860+SCSWFLAG DC    X'00'    Flags
                              000000F0  00000001  4861+SCSWKEYM EQU   X'F0'    Storage Key Mask of subchannel storage key
                              00000008  00000001  4862+SCSWSUSC EQU   X'08'    Suspend Control
                              00000004  00000001  4863+SCSWESWF EQU   X'04'    Extended Status Word Format
                              00000003  00000001  4864+SCSWDCCM EQU   X'03'    Deferred condiont code mask
                              00000000  00000001  4865+SCSWDCC0 EQU   X'00'    Normal I/O interruption
                              00000001  00000001  4866+SCSWDCC1 EQU   X'01'    Deferred condition code is 1
                              00000003  00000001  4867+SCSWDCC3 EQU   X'03'    Deferred condition code is 3

00000001  00                                      4869+SCSWCTLS DC    X'00'    General Controls
                              00000080  00000001  4870+SCSWCCWF EQU   X'80'    CCW Format control when ...
                              00000040  00000001  4871+SCSWCCWP EQU   X'40'    CCW Prefetch Control
                              00000020  00000001  4872+SCSWISIC EQU   X'20'    Initial-Status-Interruption Control
                              00000010  00000001  4873+SCSWALKC EQU   X'10'    Address-Limit-Checking Control
                              00000008  00000001  4874+SCSWSSIC EQU   X'08'    Suppress suspended interruption
                              00000004  00000001  4875+SCSW0CC  EQU   X'04'    Zero-Condition Code
                              00000002  00000001  4876+SCSWECWC EQU   X'02'    Extended Control Word control
                              00000001  00000001  4877+SCSWPNOP EQU   X'01'    Path Not Operational

00000002  00                                      4879+SCSW1    DC    X'00'    Control Byte 1
                              00000070  00000001  4880+SCSWFM   EQU   X'70'    Functional Control Mask
                              00000040  00000001  4881+SCSWFS   EQU   X'40'    Function Control - Start Function
                              00000020  00000001  4882+SCSWFH   EQU   X'20'    Function Control - Halt Function
                              00000010  00000001  4883+SCSWFC   EQU   X'10'    Function Control - Clear Function
                              00000008  00000001  4884+SCSWARP  EQU   X'08'    Activity Control - Resume pending
                              00000004  00000001  4885+SCSWASP  EQU   X'04'    Activity Control - Start pending
                              00000002  00000001  4886+SCSWAHP  EQU   X'02'    Activity Control - Halt pending
                              00000001  00000001  4887+SCSWACP  EQU   X'01'    Activity Control - Clear pending
00000003  00                                      4888+SCSW2    DC    X'00'    Control Byte 2
                              00000080  00000001  4889+SCSWASA  EQU   X'80'    Activity Control - Subchannel Active
                              00000040  00000001  4890+SCSWADA  EQU   X'40'    Activity Control - Device Active
                              00000020  00000001  4891+SCSWASUS EQU   X'20'    Activity Control - Suspended
                              00000010  00000001  4892+SCSWSAS  EQU   X'10'    Status Control   - Alert Status
                              00000008  00000001  4893+SCSWSINT EQU   X'08'    Status Control   - Intermediate Status
                              00000004  00000001  4894+SCSWSPRI EQU   X'04'    Status Control   - Primary Status
                              00000002  00000001  4895+SCSWSSEC EQU   X'02'    Status Control   - Secondary Status
                              00000001  00000001  4896+SCSWSPEN EQU   X'01'    Status Control   - Status Pending

00000004  00000000                                4898+SCSWCCW  DC    A(0)     CCW Address

00000008  00                                      4900+SCSWUS   DC    X'00'    Unit Status
                              00000080  00000001  4901+SCSWATTN EQU   X'80'    Attention
                              00000040  00000001  4902+SCSWSM   EQU   X'40'    Status modifier
                              00000020  00000001  4903+SCSWCUE  EQU   X'20'    Control-unit end
                              00000010  00000001  4904+SCSWBUSY EQU   X'10'    Busy
                              00000008  00000001  4905+SCSWCE   EQU   X'08'    Channel end
ASMA Ver. 0.2.1              CLCE-03-performance (Test CLCLE instructions)                          23 Aug 2022 21:53:43  Page    32

  LOC        OBJECT CODE       ADDR1     ADDR2    STMT

                              00000004  00000001  4906+SCSWDE   EQU   X'04'    Device end
                              00000002  00000001  4907+SCSWUC   EQU   X'02'    Unit check
                              00000001  00000001  4908+SCSWUX   EQU   X'01'    Unit exception

00000009  00                                      4910+SCSWCS   DC    X'00'    Channel Status
                              00000080  00000001  4911+SCSWPCI  EQU   X'80'    Program-controlled interruption
                              00000040  00000001  4912+SCSWIL   EQU   X'40'    Incorrect length
                              00000020  00000001  4913+SCSWPRGM EQU   X'20'    Program check
                              00000010  00000001  4914+SCSWPROT EQU   X'10'    Protection Check
                              00000008  00000001  4915+SCSWCDAT EQU   X'08'    Channel-data check
                              00000004  00000001  4916+SCSWCCTL EQU   X'04'    Channel-control check
                              00000002  00000001  4917+SCSWICTL EQU   X'02'    Interface-control check
                              00000001  00000001  4918+SCSWCHNG EQU   X'01'    Chaining check

0000000A  0000                                    4920+SCSWCNT  DC    H'0'     Residual CCW count
                              0000000C  00000001  4921+SCSWL    EQU   *-SCSW

ASMA Ver. 0.2.1              CLCE-03-performance (Test CLCLE instructions)                          23 Aug 2022 21:53:43  Page    33

  LOC        OBJECT CODE       ADDR1     ADDR2    STMT

                                                  4924 ***********************************************************************
                                                  4925 *        (other DSECTS needed by SATK)
                                                  4926 ***********************************************************************

                                                  4928          DSECTS PRINT=OFF,NAME=(ASA,SCHIB,CCW0,CCW1,CSW)













                                                  5204          PRINT ON

                                                  5206 ***********************************************************************
                                                  5207 *        Register equates
                                                  5208 ***********************************************************************


                              00000000  00000001  5210 R0       EQU   0
                              00000001  00000001  5211 R1       EQU   1
                              00000002  00000001  5212 R2       EQU   2
                              00000003  00000001  5213 R3       EQU   3
                              00000004  00000001  5214 R4       EQU   4
                              00000005  00000001  5215 R5       EQU   5
                              00000006  00000001  5216 R6       EQU   6
                              00000007  00000001  5217 R7       EQU   7
                              00000008  00000001  5218 R8       EQU   8
                              00000009  00000001  5219 R9       EQU   9
                              0000000A  00000001  5220 R10      EQU   10
                              0000000B  00000001  5221 R11      EQU   11
                              0000000C  00000001  5222 R12      EQU   12
                              0000000D  00000001  5223 R13      EQU   13
                              0000000E  00000001  5224 R14      EQU   14
                              0000000F  00000001  5225 R15      EQU   15








                                                  5227          END
ASMA Ver. 0.2.1              CLCE-03-performance (Test CLCLE instructions)                          23 Aug 2022 21:53:43  Page    34

     SYMBOL        TYPE  VALUE    LENGTH  DEFN  REFERENCES

ASA                 4    000000      512  4932  3544
ASBEGIN             U    000000        1  4933  4938  4980  5016  5025  5043  5050  5056  5060  5064  5070  5087
ASEND               U    000200        1  5086  5087
ASLENGTH            U    000200        1  5087
BCEXTCOD            H    00001A        2  4950
BCIOCOD             H    00003A        2  4958
BCMCKCOD            H    000032        2  4956
BCPGMCOD            H    00002A        2  4954
BCSVCCOD            H    000022        2  4952
BEGCLOCK            D    000F98        8  4659  3709  3927  4459  4462  4469
BEGDATON            I    000BFE        4  4306  4314
BEGIN               I    000200        2  3550  3519  3545  3546
CALCDUR             I    000D9C        4  4456  3921  4384
CALCRET             F    000DE0        4  4478  4456  4475
CALCWORK            F    000DE4        4  4479  4457  4474
CAW                 F    000048        4  4962
CAWADDR             R    000049        3  4965
CAWKEY              X    000048        1  4963
CAWSUSP             U    000008        1  4964
CCW0                4    000000        8  5091  5097
CCW0ADDR            R    000001        3  5093
CCW0CNT             H    000006        2  5096
CCW0CODE            X    000000        1  5092
CCW0FLGS            X    000004        1  5094
CCW0L               U    000008        1  5097
CCW1                4    000000        8  5109  5114
CCW1ADDR            A    000004        4  5113
CCW1CNT             H    000002        2  5112
CCW1CODE            X    000000        1  5110
CCW1FLGS            X    000001        1  5111
CCW1L               U    000008        1  5114
CCWCC               U    000040        1  5101
CCWCD               U    000080        1  5100
CCWIDA              U    000004        1  5105
CCWPCI              U    000008        1  5104
CCWSKIP             U    000010        1  5103
CCWSLI              U    000020        1  5102
CCWSUSP             U    000002        1  5106
CHANID              F    0000A8        4  5017
CLC1                A    001028        4  4678
CLC2                A    001030        4  4679
CLC256              A    001058        4  4685
CLC4                A    001048        4  4683
CLC8                A    001050        4  4684
CLCBOTH             A    001038        4  4680
CLCL1               A    001068        4  4694  3608
CLCL1K              A    001098        4  4700  3651
CLCL2               A    001078        4  4696  3618
CLCL256             A    001088        4  4698  3703  3711  3713  3718  3720  3722  3724  3726  3728  3730  3732  3734  3736  3738
                                                3740  3742  3744  3746  3748  3750  3752  3754  3756  3758  3760  3762  3764  3766
                                                3768  3770  3772  3774  3776  3778  3780  3782  3784  3786  3788  3790  3792  3794
                                                3796  3798  3800  3802  3804  3806  3808  3810  3812  3814  3816  3818  3820  3822
ASMA Ver. 0.2.1              CLCE-03-performance (Test CLCLE instructions)                          23 Aug 2022 21:53:43  Page    35

     SYMBOL        TYPE  VALUE    LENGTH  DEFN  REFERENCES

                                                3824  3826  3828  3830  3832  3834  3836  3838  3840  3842  3844  3846  3848  3850
                                                3852  3854  3856  3858  3860  3862  3864  3866  3868  3870  3872  3874  3876  3878
                                                3880  3882  3884  3886  3888  3890  3892  3894  3896  3898  3900  3902  3904  3906
                                                3908  3910  3915  3917  3929  3932  3938  3941  3944  3947  3950  3953  3956  3959
                                                3962  3965  3968  3971  3974  3977  3980  3983  3986  3989  3992  3995  3998  4001
                                                4004  4007  4010  4013  4016  4019  4022  4025  4028  4031  4034  4037  4040  4043
                                                4046  4049  4052  4055  4058  4061  4064  4067  4070  4073  4076  4079  4082  4085
                                                4088  4091  4094  4097  4100  4103  4106  4109  4112  4115  4118  4121  4124  4127
                                                4130  4133  4136  4139  4142  4145  4148  4151  4154  4157  4160  4163  4166  4169
                                                4172  4175  4178  4181  4184  4187  4190  4193  4196  4199  4202  4205  4208  4211
                                                4214  4217  4220  4223  4226  4231  4234
CLCL4               A    0010C8        4  4706  3590  3629
CLCL8               A    0010D8        4  4708  3600  3641
CLCLBOTH            A    0010A8        4  4702  3661
CLCLEND             F    0011A8        4  4738  4519  4520
CLCLETAL            J    000000    12289  3501  3504  3511  3518  3520  4746  4750  4755
CLCLOP1             A    0010E8        4  4710  3595  3672
CLCLOP2             A    0010B8        4  4704  3682
CLCLPF              A    0010F8        4  4712  4254  4280  4350  4352  4358  4360
CLCOP1              A    001060        4  4686
CLCOP2              A    001040        4  4681
CODE                2    000000    12289  3501
CONPGM              W    000FD0        8  4668  4625
CPUID               U    00031B        1  5089
CRLREG0             A    000F88        4  4654  4303
CSW                 F    000040        8  4961
CSWATTN             U    000080        1  5131
CSWBUSY             U    000010        1  5134
CSWCCTL             U    000004        1  5146
CSWCCW              R    000001        3  5128
CSWCDAT             U    000008        1  5145
CSWCE               U    000008        1  5135  4443
CSWCHNG             U    000001        1  5148
CSWCNT              H    000006        2  5150
CSWCS               X    000005        1  5140
CSWCUE              U    000020        1  5133
CSWDCC0             U    000000        1  5124
CSWDCC1             U    000001        1  5125
CSWDCC3             U    000003        1  5126
CSWDCCM             U    000003        1  5123
CSWDE               U    000004        1  5136  4443
CSWFLAG             X    000000        1  5118
CSWFMT              4    000000        8  5117  5151
CSWFMTL             U    000008        1  5151
CSWICTL             U    000002        1  5147
CSWIL               U    000040        1  5142
CSWKEYM             U    0000F0        1  5119
CSWLOG              U    000004        1  5122
CSWPCI              U    000080        1  5141
CSWPRGM             U    000020        1  5143
CSWPROT             U    000010        1  5144
CSWSM               U    000040        1  5132
ASMA Ver. 0.2.1              CLCE-03-performance (Test CLCLE instructions)                          23 Aug 2022 21:53:43  Page    36

     SYMBOL        TYPE  VALUE    LENGTH  DEFN  REFERENCES

CSWSUSP             U    000008        1  5121
CSWUC               U    000002        1  5137
CSWUS               X    000004        1  5130
CSWUX               U    000001        1  5138
CTLREG1             A    000F8C        4  4655  4304
DATONPSW            X    000C28        4  4314  4305
DATTABS             X    003000        1  4757
DURATION            D    000FA8        8  4661  3922  4387  4388  4391  4471
DWAT0010            3    000E50        8  4533  4532
DWAT0011            3    000E60        8  4538  4537
DWAT0012            3    000E70        8  4543  4542
DWAT0013            3    000E80        8  4548  4547
ECLCL1              A    001108        4  4718  3612
ECLCL1K             A    001138        4  4724  3655
ECLCL2              A    001118        4  4720  3622
ECLCL256            A    001128        4  4722
ECLCL4              A    001168        4  4730  3633
ECLCL8              A    001178        4  4732  3645
ECLCLBTH            A    001148        4  4726  3665
ECLCLOP1            A    001188        4  4734  3676
ECLCLOP2            A    001158        4  4728  3686
ECLCLPF             A    001198        4  4736  4364
EDIT                X    00101C       12  4672  4401  4402
ENADEV              I    000E96        4  4567  4511
ENAOKAY             I    000EE4        2  4592  4581
ENDCLCL             I    000E3A        4  4519  3613  3623  3634  3646  3656  3666  3677  3687
ENDCLOCK            D    000FA0        8  4660  3920  4239  4464  4467  4470
EOJ                 H    000E4A        2  4531  3572  3580
EXTCPUAD            H    000084        2  4982
EXTICODE            H    000086        2  4983
EXTIPARM            F    000080        4  4981
EXTNPSW             F    000058        8  4971
EXTOPSW             F    000018        8  4943  4949
FAILDEV             H    000E58        2  4536  4572  4582  4587
FAILIO              H    000E68        2  4541  4411  4434  4444
FAILTEST            H    000E78        2  4546  3575  3578  3611  3621  3632  3644  3654  3664  3675  3685  4325  4331  4345  4351
                                                4353  4357  4359  4361  4365  4369  4375  4521
FIND0015            A    000EDC        4  4589  4567
FINL0015            H    000E9E        2  4570  4586
FINM0015            A    000EE0        4  4590  4585
FINN0015            H    000ECC        2  4583  4574  4576
IIRB0016            F    000F18        4  4617  4613  4615
IMAGE               1    000000    12289     0
INIT                H    000E28        2  4505  3557
IOCB                4    000000       48  4765  4789  3547
IOCBCAW             A    000018        4  4785
IOCBCM              X    000009        1  4773
IOCBCS              X    00000B        1  4776
IOCBCT              X    00000D        1  4778
IOCBDEV             H    000004        2  4770  4575
IOCBDID             F    000000        4  4767  4407  4578
IOCBDV              H    000002        2  4769
ASMA Ver. 0.2.1              CLCE-03-performance (Test CLCLE instructions)                          23 Aug 2022 21:53:43  Page    37

     SYMBOL        TYPE  VALUE    LENGTH  DEFN  REFERENCES

IOCBIRB             A    000020        8  4787  4412
IOCBL               U    000030        1  4789
IOCBORB             A    000018        8  4786  4409  4508
IOCBRCNT            H    000016        2  4784  4441
IOCBSC              X    00000E        1  4779  4405  4436  4438
IOCBSCCW            A    000010        4  4781  4440
IOCBSCNT            F    000014        4  4782
IOCBSIB             A    000028        8  4788  4568
IOCBST              H    00000A        2  4774  4406  4437
IOCBUM              X    000008        1  4772
IOCBUS              X    00000A        1  4775  4443
IOCBUT              X    00000C        1  4777
IOCBWAIT            X    00000F        1  4780
IOCBZERO            H    000006        2  4771  4406
IOCB_009            A    000EE8        4  4600  4507
IOELADDR            F    0000AC        4  5018
IOICODE             H    0000BA        2  5023
IOIID               F    0000C0        4  5028
IOINIT              I    000E88        4  4555  4510
IOIPARM             F    0000BC        4  5027
IOMK0014            F    000E90        4  4557  4555  4556
ION0008             3    000D40        8  4422  4419
IONPSW              F    000078        8  4975
IOOPSW              F    000038        8  4947  4957
IORB0016            X    000F58       12  4619  4611
IOS0008             X    000D48        8  4423  4418  4426
IOSSID              F    0000B8        4  5026  4429
IOWT0007            H    000D26        2  4416  4430  4433  4439
IPLCCW1             F    000008        8  4935
IPLCCW2             F    000010        8  4936
IPLPSW              F    000000        8  4934
IRB                 4    000000       96  4844  4848  4850  4413
IRBECW              X    000020       32  4847
IRBEMW              X    000040       32  4849
IRBESW              X    00000C       20  4846
IRBL                U    000040        1  4848
IRBSCSW             X    000000       12  4845  4436  4437  4440  4441
IRBXL               U    000060        1  4850
IRST0008            H    000D50        2  4425  4422
K                   U    000400        1  4641  4642  4643  4644  4700  4724
K64                 U    010000        1  4643  4650  4678  4679  4680  4681  4683  4684  4685  4686  4694  4696  4698  4700  4702
                                                4704  4706  4708  4710  4712  4718  4720  4722  4724  4726  4728  4730  4732  4734
                                                4736
LCHANLOG            F    0000B0        4  5019
LOGICERR            D    000C18        8  4312
MAINSIZE            U    200000        1  4649  4650
MB                  U    100000        1  4644  4649  4678  4679  4680  4681  4683  4684  4685  4686  4694  4696  4698  4700  4702
                                                4704  4706  4708  4710  4712  4718  4720  4722  4724  4726  4728  4730  4732  4734
                                                4736
MCKLOG              F    000100        4  5051
MCKNPSW             F    000070        8  4974
MCKOPSW             F    000030        8  4946  4955
ASMA Ver. 0.2.1              CLCE-03-performance (Test CLCLE instructions)                          23 Aug 2022 21:53:43  Page    38

     SYMBOL        TYPE  VALUE    LENGTH  DEFN  REFERENCES

MEASUREB            X    0000B9        1  5022
MKARCHMD            X    0000A3        1  5010
MKARS               F    000120        4  5049
MKCLKCMP            F    0000E0        8  5035
MKCPUTIM            F    0000D8        8  5034
MKCRS               F    0001C0        4  5054
MKDMGCOD            F    0000F4        4  5038
MKFAILA             F    0000F8        4  5040
MKFPRS              D    000160        8  5052
MKICODE             F    0000E8        4  5036
MKLOGOUT            F    000100        4  5042
MKMODEL             F    0000FC        4  5041
MKXSAA              F    0000D4        4  5033
MONCLS              H    000094        2  4998
MONCODE             F    00009C        4  5005
MONNUMBR            X    000095        1  5000
MPGACCID            X    0000A2        1  5008
MYPGMNEW            I    000C30        6  4319  4296
NKGRS               F    000180        4  5053
NUMLOOPS            F    000F90        4  4657  3708  3926
NUMPGTBS            U    000020        1  4650  4651  4653  4260
NUMSEGTB            U    000002        1  4651  4655
ORB                 4    000000       32  4797  4827  4835  3548
ORB1_0              X    000004        1  4800
ORB1_8              X    000005        1  4807
ORBA                U    000010        1  4811
ORBB                U    000004        1  4813
ORBC                U    000004        1  4803
ORBCCW              A    000008        4  4825
ORBCSS              X    00000C        1  4829
ORBCU               X    00000E        1  4832
ORBD                U    000040        1  4820
ORBF                U    000080        1  4808
ORBH                U    000002        1  4814
ORBI                U    000020        1  4810
ORBKEYM             U    0000F0        1  4801
ORBL                U    000080        1  4818
ORBLEN              U    00000C        1  4827
ORBLPM              X    000006        1  4816
ORBM                U    000002        1  4804
ORBP                U    000040        1  4809
ORBPARM             F    000000        4  4798
ORBPGM              X    00000E        1  4831
ORBRSV25            U    00007E        1  4822
ORBRSV26            U    00003E        1  4821
ORBRSV3             U    00007F        1  4819
ORBRSV4             U    000080        1  4826
ORBRSV5             X    00000D        1  4830
ORBRSV6             X    00000F        1  4833
ORBRSV7             X    000010       16  4834
ORBS                U    000008        1  4802
ORBT                U    000001        1  4815
ASMA Ver. 0.2.1              CLCE-03-performance (Test CLCLE instructions)                          23 Aug 2022 21:53:43  Page    39

     SYMBOL        TYPE  VALUE    LENGTH  DEFN  REFERENCES

ORBU                U    000008        1  4812
ORBX                U    000001        1  4823
ORBXLEN             U    000020        1  4835
ORBY                U    000001        1  4805
ORRB1_24            X    000007        1  4817
OVERHEAD            D    000FB0        8  4662  3922  4386
PAGE                U    001000        1  4642  4646  4652  4740  4264  4704  4710  4728  4734
PAGELOOP            I    000BA8        4  4271  4274
PAGETABS            U    003080        1  4653  4261
PCFETO              A    0000C4        4  5029
PERACCID            X    0000A1        1  5007
PERADDR             F    000098        4  5004
PERCODE             X    000096        1  5001
PERCODMK            U    0000F0        1  5002
PFINSADR            I    000C0A        4  4309  4324
PFPAGE              U    000005        1  4739  4740
PFPGBYTS            U    005000        1  4740  4282
PGMACCID            X    0000A0        1  5006
PGMDXC              F    000090        4  4996
PGMICODE            H    00008E        2  4995  4330
PGMIID              F    00008C        4  4991
PGMIILC             X    00008D        1  4993
PGMIILCM            U    00000C        1  4994
PGMNPSW             F    000068        8  4973  4295  4297  4298  4319
PGMOPSW             F    000028        8  4945  4953  4324
PGMTRX              F    000090        4  4997  4337
PMCW1_0             X    000004        1  5158
PMCW1_8             X    000005        1  5161  4573  4579
PMCWB               U    000004        1  5193
PMCWCHP0            X    000010        1  5182
PMCWCHP1            X    000011        1  5183
PMCWCHP2            X    000012        1  5184
PMCWCHP3            X    000013        1  5185
PMCWCHP4            X    000014        1  5186
PMCWCHP5            X    000015        1  5187
PMCWCHP6            X    000016        1  5188
PMCWCHP7            X    000017        1  5189
PMCWDNUM            H    000006        2  5173  4575
PMCWE               U    000080        1  5162  4579
PMCWEXC             X    00001B        1  5192
PMCWIP              F    000000        4  5157
PMCWISCM            U    000038        1  5159
PMCWLM              U    000060        1  5163
PMCWLMG             U    000020        1  5164
PMCWLML             U    000040        1  5165
PMCWLPM             X    000008        1  5175
PMCWLPUM            X    00000A        1  5177
PMCWM               U    000004        1  5169
PMCWMBI             H    00000C        2  5179
PMCWMM              U    000018        1  5166
PMCWMMC             U    000008        1  5168
PMCWMME             U    000010        1  5167
ASMA Ver. 0.2.1              CLCE-03-performance (Test CLCLE instructions)                          23 Aug 2022 21:53:43  Page    40

     SYMBOL        TYPE  VALUE    LENGTH  DEFN  REFERENCES

PMCWPAM             X    00000F        1  5181
PMCWPIM             X    00000B        1  5178
PMCWPNOM            X    000009        1  5176
PMCWPOM             X    00000E        1  5180
PMCWRES1            X    000018        4  5190
PMCWRES2            X    000018        3  5191
PMCWS               U    000001        1  5195
PMCWT               U    000002        1  5170
PMCWV               U    000001        1  5171  4573
PMCWX               U    000002        1  5194
PRTLINE             C    000FD8       38  4669  4671  4241  4401  4402  4668
PRTLNG              U    000044        1  4671  4668
R0                  U    000000        1  5210  3544  4262  4271  4272  4296  4297  4303  4337  4338  4339  4344
R1                  U    000001        1  5211  4304
R10                 U    00000A        1  5220  3608  3609  3618  3619  3629  3630  3641  3642  3651  3652  3661  3662  3672  3673
                                                3682  3683  3703  3704  3711  3713  3718  3720  3722  3724  3726  3728  3730  3732
                                                3734  3736  3738  3740  3742  3744  3746  3748  3750  3752  3754  3756  3758  3760
                                                3762  3764  3766  3768  3770  3772  3774  3776  3778  3780  3782  3784  3786  3788
                                                3790  3792  3794  3796  3798  3800  3802  3804  3806  3808  3810  3812  3814  3816
                                                3818  3820  3822  3824  3826  3828  3830  3832  3834  3836  3838  3840  3842  3844
                                                3846  3848  3850  3852  3854  3856  3858  3860  3862  3864  3866  3868  3870  3872
                                                3874  3876  3878  3880  3882  3884  3886  3888  3890  3892  3894  3896  3898  3900
                                                3902  3904  3906  3908  3910  3915  3917  3929  3930  3932  3933  3938  3939  3941
                                                3942  3944  3945  3947  3948  3950  3951  3953  3954  3956  3957  3959  3960  3962
                                                3963  3965  3966  3968  3969  3971  3972  3974  3975  3977  3978  3980  3981  3983
                                                3984  3986  3987  3989  3990  3992  3993  3995  3996  3998  3999  4001  4002  4004
                                                4005  4007  4008  4010  4011  4013  4014  4016  4017  4019  4020  4022  4023  4025
                                                4026  4028  4029  4031  4032  4034  4035  4037  4038  4040  4041  4043  4044  4046
                                                4047  4049  4050  4052  4053  4055  4056  4058  4059  4061  4062  4064  4065  4067
                                                4068  4070  4071  4073  4074  4076  4077  4079  4080  4082  4083  4085  4086  4088
                                                4089  4091  4092  4094  4095  4097  4098  4100  4101  4103  4104  4106  4107  4109
                                                4110  4112  4113  4115  4116  4118  4119  4121  4122  4124  4125  4127  4128  4130
                                                4131  4133  4134  4136  4137  4139  4140  4142  4143  4145  4146  4148  4149  4151
                                                4152  4154  4155  4157  4158  4160  4161  4163  4164  4166  4167  4169  4170  4172
                                                4173  4175  4176  4178  4179  4181  4182  4184  4185  4187  4188  4190  4191  4193
                                                4194  4196  4197  4199  4200  4202  4203  4205  4206  4208  4209  4211  4212  4214
                                                4215  4217  4218  4220  4221  4223  4224  4226  4227  4231  4232  4234  4235  4254
                                                4255  4259  4266  4267  4268  4280  4281  4309  4350  4364  4368  4372  4486  4488
                                                4493  4496  4519
R11                 U    00000B        1  5221  4260  4276  4356  4358  4373  4488  4490
R12                 U    00000C        1  5222  3609  3619  3630  3642  3652  3662  3673  3683  3704  3930  3933  3939  3942  3945
                                                3948  3951  3954  3957  3960  3963  3966  3969  3972  3975  3978  3981  3984  3987
                                                3990  3993  3996  3999  4002  4005  4008  4011  4014  4017  4020  4023  4026  4029
                                                4032  4035  4038  4041  4044  4047  4050  4053  4056  4059  4062  4065  4068  4071
                                                4074  4077  4080  4083  4086  4089  4092  4095  4098  4101  4104  4107  4110  4113
                                                4116  4119  4122  4125  4128  4131  4134  4137  4140  4143  4146  4149  4152  4155
                                                4158  4161  4164  4167  4170  4173  4176  4179  4182  4185  4188  4191  4194  4197
                                                4200  4203  4206  4209  4212  4215  4218  4221  4224  4227  4232  4235  4255  4261
                                                4266  4271  4273  4309  4352  4391  4392  4394  4489  4492  4493  4494
R13                 U    00000D        1  5223  3608  3618  3629  3641  3651  3661  3672  3682  3703  3711  3713  3718  3720  3722
                                                3724  3726  3728  3730  3732  3734  3736  3738  3740  3742  3744  3746  3748  3750
                                                3752  3754  3756  3758  3760  3762  3764  3766  3768  3770  3772  3774  3776  3778
ASMA Ver. 0.2.1              CLCE-03-performance (Test CLCLE instructions)                          23 Aug 2022 21:53:43  Page    41

     SYMBOL        TYPE  VALUE    LENGTH  DEFN  REFERENCES

                                                3780  3782  3784  3786  3788  3790  3792  3794  3796  3798  3800  3802  3804  3806
                                                3808  3810  3812  3814  3816  3818  3820  3822  3824  3826  3828  3830  3832  3834
                                                3836  3838  3840  3842  3844  3846  3848  3850  3852  3854  3856  3858  3860  3862
                                                3864  3866  3868  3870  3872  3874  3876  3878  3880  3882  3884  3886  3888  3890
                                                3892  3894  3896  3898  3900  3902  3904  3906  3908  3910  3915  3917  3929  3932
                                                3938  3941  3944  3947  3950  3953  3956  3959  3962  3965  3968  3971  3974  3977
                                                3980  3983  3986  3989  3992  3995  3998  4001  4004  4007  4010  4013  4016  4019
                                                4022  4025  4028  4031  4034  4037  4040  4043  4046  4049  4052  4055  4058  4061
                                                4064  4067  4070  4073  4076  4079  4082  4085  4088  4091  4094  4097  4100  4103
                                                4106  4109  4112  4115  4118  4121  4124  4127  4130  4133  4136  4139  4142  4145
                                                4148  4151  4154  4157  4160  4163  4166  4169  4172  4175  4178  4181  4184  4187
                                                4190  4193  4196  4199  4202  4205  4208  4211  4214  4217  4220  4223  4226  4231
                                                4234  4254  4270  4274  4280  4356  4360  4391  4395  4486  4489  4490  4494  4496
                                                4519
R14                 U    00000E        1  5224  3557  3561  3563  3565  3689  3696  4243  4377  4512
R15                 U    00000F        1  5225  3613  3623  3634  3646  3656  3666  3677  3687  3921  4242  4383  4384  4389  4447
                                                4448  4456  4472  4475  4476  4497  4510  4511  4522  4560  4592
R2                  U    000002        1  5212  3545  3550  3551  3552  3554
R3                  U    000003        1  5213  3547  4507
R4                  U    000004        1  5214
R5                  U    000005        1  5215  3590  3591  3592  3593  3595  3596  3597  3598  3600  3601  3602  3603  3612  3622
                                                3633  3645  3655  3665  3676  3686  3708  3919  3926  4238  4281  4282  4283  4284
                                                4285  4288  4289  4386  4457  4469  4474  4488  4520
R6                  U    000006        1  5216  3590  3591  3595  3596  3600  3601  3710  3919  3928  4238  4263  4268  4273  4283
                                                4341  4342  4344  4368  4374  4387  4459  4460  4461  4462  4464  4465  4466  4467
                                                4470  4489
R7                  U    000007        1  5217  4264  4272  4372  4373  4374  4388  4457  4459  4462  4464  4467  4471  4474  4494
R8                  U    000008        1  5218  3548  4508
R9                  U    000009        1  5219  3546  3554  3555
RPTSAVE             F    000D98        4  4450  4383  4447
RPTSPEED            I    000CC2        4  4383  4242
RSTNPSW             F    000000        8  4939
RSTOPSW             F    000008        8  4940
SCANOUT             X    000080        1  4977  4978
SCANOUTL            U    000000        1  4978
SCHIB               4    000000       52  5154  5201  4569
SCHIBL              U    000034        1  5201
SCHMBA              A    000028        8  5199
SCHMDA1             X    000030        4  5200
SCHMDA3             X    000028       12  5198
SCHPMCW             X    000000       28  5156
SCHSCSW             X    00001C       12  5197
SCSW                4    000000       12  4859  4921
SCSW0CC             U    000004        1  4875
SCSW1               X    000002        1  4879
SCSW2               X    000003        1  4888  4436
SCSWACP             U    000001        1  4887
SCSWADA             U    000040        1  4890
SCSWAHP             U    000002        1  4886
SCSWALKC            U    000010        1  4873
SCSWARP             U    000008        1  4884
SCSWASA             U    000080        1  4889
ASMA Ver. 0.2.1              CLCE-03-performance (Test CLCLE instructions)                          23 Aug 2022 21:53:43  Page    42

     SYMBOL        TYPE  VALUE    LENGTH  DEFN  REFERENCES

SCSWASP             U    000004        1  4885
SCSWASUS            U    000020        1  4891
SCSWATTN            U    000080        1  4901
SCSWBUSY            U    000010        1  4904
SCSWCCTL            U    000004        1  4916
SCSWCCW             A    000004        4  4898  4440
SCSWCCWF            U    000080        1  4870
SCSWCCWP            U    000040        1  4871
SCSWCDAT            U    000008        1  4915
SCSWCE              U    000008        1  4905
SCSWCHNG            U    000001        1  4918
SCSWCNT             H    00000A        2  4920  4441
SCSWCS              X    000009        1  4910
SCSWCTLS            X    000001        1  4869
SCSWCUE             U    000020        1  4903
SCSWDCC0            U    000000        1  4865
SCSWDCC1            U    000001        1  4866
SCSWDCC3            U    000003        1  4867
SCSWDCCM            U    000003        1  4864
SCSWDE              U    000004        1  4906
SCSWECWC            U    000002        1  4876
SCSWESWF            U    000004        1  4863
SCSWFC              U    000010        1  4883
SCSWFH              U    000020        1  4882
SCSWFLAG            X    000000        1  4860
SCSWFM              U    000070        1  4880
SCSWFS              U    000040        1  4881
SCSWICTL            U    000002        1  4917
SCSWIL              U    000040        1  4912
SCSWISIC            U    000020        1  4872
SCSWKEYM            U    0000F0        1  4861
SCSWL               U    00000C        1  4921
SCSWPCI             U    000080        1  4911
SCSWPNOP            U    000001        1  4877
SCSWPRGM            U    000020        1  4913
SCSWPROT            U    000010        1  4914
SCSWSAS             U    000010        1  4892
SCSWSINT            U    000008        1  4893
SCSWSM              U    000040        1  4902
SCSWSPEN            U    000001        1  4896
SCSWSPRI            U    000004        1  4894  4438
SCSWSSEC            U    000002        1  4895
SCSWSSIC            U    000008        1  4874
SCSWSUSC            U    000008        1  4862
SCSWUC              U    000002        1  4907
SCSWUS              X    000008        1  4900  4437
SCSWUX              U    000001        1  4908
SEGLOOP             I    000B9A        4  4266  4276
SEGTABLS            U    003000        1  4652  4653  4755  4259  4655
SSARCHMD            X    0000A3        1  5009
SSARS               F    000120        4  5065
SSCLKCMP            F    0000E0        8  5059
ASMA Ver. 0.2.1              CLCE-03-performance (Test CLCLE instructions)                          23 Aug 2022 21:53:43  Page    43

     SYMBOL        TYPE  VALUE    LENGTH  DEFN  REFERENCES

SSCPUTIM            F    0000D8        8  5058
SSCRS               F    0001C0        4  5068
SSFPRS              D    000160        8  5066
SSGRS               F    000180        4  5067
SSMODEL             F    00010C        4  5063
SSPREFIX            F    000108        4  5062
SSPSW               F    000100        8  5061
SSXSAA              A    0000D4        4  5057
STFLDATA            F    0000C8        4  5030
SUBDWORD            I    000DF0        4  4486  4389  4472
SUBDWSAV            D    000E18        8  4499  4486  4496
SUBTEST             X    0021FF        1  4753  3577  3607  3617  3628  3640  3650  3660  3671  3681  3699  4250  4287  4294  4302
                                                4323  4329  4336  4349  4355  4363  4367  4371
SVCICODE            H    00008A        2  4989
SVCIID              F    000088        4  4985
SVCIILC             X    000089        1  4987
SVCIILCM            U    00000C        1  4988
SVCNPSW             F    000060        8  4972
SVCOPSW             F    000020        8  4944  4951
SVPGMNEW            D    000C20        8  4313  4295  4319
TEST02              I    00023A        4  3586  3561
TEST92              I    000344        4  3695  3563
TEST95              I    000B76        4  4249  3565
TESTADDR            U    0021FE        1  4646  4647  4750
TESTNUM             X    0021FE        1  4752  3574  3586  3698  4249
TICKSAAA            P    000FB8        8  4664  4394  4397
TICKSBBB            P    000FC0        8  4665  4395  4399
TICKSTOT            P    000FC8        8  4666  4397  4398  4399  4402
TIMEADDR            U    0021FD        1  4647  4746
TIMEOPT             X    0021FD        1  4748  3571  3695
TIMER               F    000050        4  4968
TTDES               F    000054        4  4969
UA0                 F    000010        8  4941
UA1                 F    00004C        4  4966
UA2                 F    0000A4        4  5011
UA3                 F    0000B4        4  5020
UA4                 X    0000B8        1  5021
UA5                 X    0000CC        8  5031
UA6                 X    0000EC        8  5037
UA7                 F    000118        8  5048
UA8                 X    000180       32  5077
WPSW0008            3    000D38        8  4421  4420
ZBRKADDR            A    000110        8  5047
ZEMONCNT            F    00010C        4  5046
ZEMONCTR            A    000100        8  5044
ZEMONSIZ            F    000108        4  5045
ZEXTNPSW            X    0001B0       16  5080
ZEXTOPSW            X    000130       16  5072
ZIONPSW             X    0001F0       16  5084
ZIOOPSW             X    000170       16  5076
ZMCKNPSW            X    0001E0       16  5083
ZMCKOPSW            X    000160       16  5075
ASMA Ver. 0.2.1              CLCE-03-performance (Test CLCLE instructions)                          23 Aug 2022 21:53:43  Page    44

     SYMBOL        TYPE  VALUE    LENGTH  DEFN  REFERENCES

ZMKFAILA            F    0000F8        8  5039
ZMONCODE            F    0000B0        8  5014
ZPGMNPSW            X    0001D0       16  5082
ZPGMOPSW            X    000150       16  5074
ZPGMTRX             F    0000A8        8  5013
ZRSTNPSW            X    0001A0       16  5079
ZRSTOPSW            X    000120       16  5071
ZSASDISP            U    0011C0        1  5085
ZSVCNPSW            X    0001C0       16  5081
ZSVCOPSW            X    000140       16  5073
=A(PAGE)            A    000F6C        4  4634  4264
=A(PAGETABS)        A    000F68        4  4633  4261  4288
=A(PFINSADR)        A    000F74        4  4636  4324
=A(PFPGBYTS)        A    000F70        4  4635  4282
=A(SEGTABLS)        A    000F64        4  4632  4259
=CL6'CLCLE'         C    000F7C        6  4638  4241
=F'1'               F    000F78        4  4637  4492
=P'4294967296'      P    000F82        6  4639  4398
ASMA Ver. 0.2.1              CLCE-03-performance (Test CLCLE instructions)                          23 Aug 2022 21:53:43  Page    45

 MACRO     DEFN  REFERENCES

ANTR        116
APROB       248
ARCHIND     408   3438
ARCHLVL     549   3437
ASAIPL      675   3517
ASALOAD     755   3500
ASAREA      810   4931
ASAZAREA    995
CPUWAIT    1078   4417
DSECTS     1404   4763   4795   4842   4857   4928
DWAIT      1607   4530   4535   4540   4545
DWAITEND   1664   4529
ENADEV     1672   4566
ESA390     1772
IOCB       1783   4599
IOCBDS     1959   4764
IOFMT      1993   4796   4843   4858   5090   5108   5116   5153
IOINIT     2331   4554
IOTRFR     2372
ORB        2420   4618
POINTER    2609
PSWFMT     2637
RAWAIT     2771
RAWIO      2867   4404
SIGCPU     3025
SMMGR      3083
SMMGRB     3183
TRAP128    3232
TRAP64     3209   3502   3505
TRAPS      3245
ZARCH      3319
ZEROH      3331
ZEROL      3359
ZEROLH     3387
ZEROLL     3410
ASMA Ver. 0.2.1              CLCE-03-performance (Test CLCLE instructions)                          23 Aug 2022 21:53:43  Page    46

   DESC     SYMBOL    SIZE     POS        ADDR

Entry: 0

Image      IMAGE     12289  0000-3000  0000-3000
  Region   CODE      12289  0000-3000  0000-3000
    CSECT  CLCLETAL  12289  0000-3000  0000-3000


  ADDR     POS                                 OBJECT CONTENT                                         CHARACTER CONTENT


Region: CODE

00000000   0000   00080000 00000200 00000000 00000000  00000000 00000000 00000000 00000000   |................ ................|
00000020   0020   00000000 00000000 00000000 00000000  00000000 00000000 00000000 00000000   |................ ................|
00000040   0040   00000000 00000000 00000000 00000000  00000000 00000000 000A0000 00000018   |................ ................|
00000060   0060   000A0000 00000020 000A0000 00000028  000A0000 00000030 000A0000 00000038   |................ ................|
00000080   0080   00000000 00000000 00000000 00000000  00000000 00000000 00000000 00000000   |................ ................|
000000A0   00A0   00000000 00000000 00000000 00000000  00000000 00000000 00000000 00000000   |................ ................|
000000C0   00C0   00000000 00000000 00000000 00000000  00000000 00000000 00000000 00000000   |................ ................|
000000E0   00E0   00000000 00000000 00000000 00000000  00000000 00000000 00000000 00000000   |................ ................|
00000100   0100   00000000 00000000 00000000 00000000  00000000 00000000 00000000 00000000   |................ ................|
00000120   0120   00000000 00000000 00000000 00000000  00000000 00000000 00000000 00000000   |................ ................|
00000140   0140   00000000 00000000 00000000 00000000  00000000 00000000 00000000 00000000   |................ ................|
00000160   0160   00000000 00000000 00000000 00000000  00000000 00000000 00000000 00000000   |................ ................|
00000180   0180   00000000 00000000 00000000 00000000  00000000 00000000 00000000 00000000   |................ ................|
000001A0   01A0   00000000 00000000 00000000 00000000  00000000 00000000 00000000 00000000   |................ ................|
000001C0   01C0   00000000 00000000 00000000 00000000  00000000 00000000 00000000 00000000   |................ ................|
000001E0   01E0   00000000 00000000 00000000 00000000  00000000 00000000 00000000 00000000   |................ ................|
00000200   0200   05200620 06204190 28004190 980045E0  2C2845E0 203A45E0 214445E0 29769500   |............q... ..............n.|
00000220   0220   9FFD4770 2C4A9595 9FFE4770 2C789510  9FFF4770 2C7847F0 2C4A9202 9FFE9856   |.....nn......n. .......0.k...q.|
00000240   0240   2EC81E56 065092FF 50009856 2EE81E56  065092FF 50009856 2EE01E56 065092FF   |.H...&k.&.q..Y.. .&k.&.q......&k.|
00000260   0260   50009201 9FFF98AD 2E68A9AC 00004710  206A4770 2C784150 2F0845F0 2C3A9202   |&.k...q...z..... ......&...0..k.|
00000280   0280   9FFF98AD 2E78A9AC 00004710 20864770  2C784150 2F1845F0 2C3A9204 9FFF98AD   |..q...z......f.. ...&...0..k...q.|
000002A0   02A0   2EC8A9AC 00004710 20A247D0 2C784150  2F6845F0 2C3A9208 9FFF98AD 2ED8A9AC   |.Hz......s.....& ...0..k...q..Qz.|
000002C0   02C0   00004710 20BE47B0 2C784150 2F7845F0  2C3A9200 9FFF98AD 2E98A9AC 00004710   |...........&...0 ..k...q..qz.....|
000002E0   02E0   20DA4770 2C784150 2F3845F0 2C3A9222  9FFF98AD 2EA8A9AC 00004710 20F64770   |.......&...0..k. ..q..yz......6..|
00000300   0300   2C784150 2F4845F0 2C3A9210 9FFF98AD  2EE8A9AC 00004710 211247D0 2C784150   |...&...0..k...q. .Yz............&|
00000320   0320   2F8845F0 2C3A9220 9FFF98AD 2EB8A9AC  00004710 212E4770 2C784150 2F5845F0   |.h.0..k...q...z. ...........&...0|
00000340   0340   2C3A07FE 91FF9FFD 078E9292 9FFE9201  9FFF98AD 2E88D2FF A000C000 58502D90   |....j.....kk..k. ..q..hK......&..|
00000360   0360   B2052D98 056098AD 2E884710 216E98AD  2E884710 217698AD 2E884710 217E98AD   |...q.-q..h...>q. .h....q..h...=q.|
00000380   0380   2E884710 218698AD 2E884710 218E98AD  2E884710 219698AD 2E884710 219E98AD   |.h...fq..h....q. .h...oq..h....q.|
000003A0   03A0   2E884710 21A698AD 2E884710 21AE98AD  2E884710 21B698AD 2E884710 21BE98AD   |.h...wq..h....q. .h....q..h....q.|
000003C0   03C0   2E884710 21C698AD 2E884710 21CE98AD  2E884710 21D698AD 2E884710 21DE98AD   |.h...Fq..h....q. .h...Oq..h....q.|
000003E0   03E0   2E884710 21E698AD 2E884710 21EE98AD  2E884710 21F698AD 2E884710 21FE98AD   |.h...Wq..h....q. .h...6q..h....q.|
00000400   0400   2E884710 220698AD 2E884710 220E98AD  2E884710 221698AD 2E884710 221E98AD   |.h....q..h....q. .h....q..h....q.|
00000420   0420   2E884710 222698AD 2E884710 222E98AD  2E884710 223698AD 2E884710 223E98AD   |.h....q..h....q. .h....q..h....q.|
00000440   0440   2E884710 224698AD 2E884710 224E98AD  2E884710 225698AD 2E884710 225E98AD   |.h....q..h...+q. .h....q..h...;q.|
00000460   0460   2E884710 226698AD 2E884710 226E98AD  2E884710 227698AD 2E884710 227E98AD   |.h....q..h...>q. .h....q..h...=q.|
00000480   0480   2E884710 228698AD 2E884710 228E98AD  2E884710 229698AD 2E884710 229E98AD   |.h...fq..h....q. .h...oq..h....q.|
000004A0   04A0   2E884710 22A698AD 2E884710 22AE98AD  2E884710 22B698AD 2E884710 22BE98AD   |.h...wq..h....q. .h....q..h....q.|
000004C0   04C0   2E884710 22C698AD 2E884710 22CE98AD  2E884710 22D698AD 2E884710 22DE98AD   |.h...Fq..h....q. .h...Oq..h....q.|
000004E0   04E0   2E884710 22E698AD 2E884710 22EE98AD  2E884710 22F698AD 2E884710 22FE98AD   |.h...Wq..h....q. .h...6q..h....q.|
ASMA Ver. 0.2.1              CLCE-03-performance (Test CLCLE instructions)                          23 Aug 2022 21:53:43  Page    47

  ADDR     POS                                 OBJECT CONTENT                                         CHARACTER CONTENT

00000500   0500   2E884710 230698AD 2E884710 230E98AD  2E884710 231698AD 2E884710 231E98AD   |.h....q..h....q. .h....q..h....q.|
00000520   0520   2E884710 232698AD 2E884710 232E98AD  2E884710 233698AD 2E884710 233E98AD   |.h....q..h....q. .h....q..h....q.|
00000540   0540   2E884710 234698AD 2E884710 234E98AD  2E884710 235698AD 2E884710 235E98AD   |.h....q..h...+q. .h....q..h...;q.|
00000560   0560   2E884710 236698AD 2E884710 236E98AD  2E884710 237698AD 2E884710 237E98AD   |.h....q..h...>q. .h....q..h...=q.|
00000580   0580   2E884710 238698AD 2E884710 238E98AD  2E884710 239698AD 2E884710 239E98AD   |.h...fq..h....q. .h...oq..h....q.|
000005A0   05A0   2E884710 23A698AD 2E884710 23AE98AD  2E884710 23B698AD 2E884710 23BE98AD   |.h...wq..h....q. .h....q..h....q.|
000005C0   05C0   2E884710 23C698AD 2E884710 23CE98AD  2E884710 23D698AD 2E884710 23DE98AD   |.h...Fq..h....q. .h...Oq..h....q.|
000005E0   05E0   2E884710 23E698AD 2E884710 23EE98AD  2E884710 23F698AD 2E884710 23FE98AD   |.h...Wq..h....q. .h...6q..h....q.|
00000600   0600   2E884710 240698AD 2E884710 240E98AD  2E884710 241698AD 2E884710 241E98AD   |.h....q..h....q. .h....q..h....q.|
00000620   0620   2E884710 242698AD 2E884710 242E98AD  2E884710 243698AD 2E884710 243E98AD   |.h....q..h....q. .h....q..h....q.|
00000640   0640   2E884710 244698AD 2E884710 244E98AD  2E884710 245698AD 2E884710 245E98AD   |.h....q..h...+q. .h....q..h...;q.|
00000660   0660   2E884710 246698AD 2E884710 246E98AD  2E884710 247698AD 2E884710 247E98AD   |.h....q..h...>q. .h....q..h...=q.|
00000680   0680   2E884710 248698AD 2E884710 248E0656  B2052DA0 45F02B9C D2072DB0 2DA85850   |.h...fq..h...... .....0..K....y.&|
000006A0   06A0   2D90B205 2D980560 98AD2E88 A9AC0000  471024AC 98AD2E88 A9AC0000 471024B8   |.....q.-q..hz... ....q..hz.......|
000006C0   06C0   98AD2E88 A9AC0000 471024C4 98AD2E88  A9AC0000 471024D0 98AD2E88 A9AC0000   |q..hz......Dq..h z.......q..hz...|
000006E0   06E0   471024DC 98AD2E88 A9AC0000 471024E8  98AD2E88 A9AC0000 471024F4 98AD2E88   |....q..hz......Y q..hz......4q..h|
00000700   0700   A9AC0000 47102500 98AD2E88 A9AC0000  4710250C 98AD2E88 A9AC0000 47102518   |z.......q..hz... ....q..hz.......|
00000720   0720   98AD2E88 A9AC0000 47102524 98AD2E88  A9AC0000 47102530 98AD2E88 A9AC0000   |q..hz.......q..h z.......q..hz...|
00000740   0740   4710253C 98AD2E88 A9AC0000 47102548  98AD2E88 A9AC0000 47102554 98AD2E88   |....q..hz....... q..hz.......q..h|
00000760   0760   A9AC0000 47102560 98AD2E88 A9AC0000  4710256C 98AD2E88 A9AC0000 47102578   |z......-q..hz... ...%q..hz.......|
00000780   0780   98AD2E88 A9AC0000 47102584 98AD2E88  A9AC0000 47102590 98AD2E88 A9AC0000   |q..hz......dq..h z.......q..hz...|
000007A0   07A0   4710259C 98AD2E88 A9AC0000 471025A8  98AD2E88 A9AC0000 471025B4 98AD2E88   |....q..hz......y q..hz.......q..h|
000007C0   07C0   A9AC0000 471025C0 98AD2E88 A9AC0000  471025CC 98AD2E88 A9AC0000 471025D8   |z.......q..hz... ....q..hz......Q|
000007E0   07E0   98AD2E88 A9AC0000 471025E4 98AD2E88  A9AC0000 471025F0 98AD2E88 A9AC0000   |q..hz......Uq..h z......0q..hz...|
00000800   0800   471025FC 98AD2E88 A9AC0000 47102608  98AD2E88 A9AC0000 47102614 98AD2E88   |....q..hz....... q..hz.......q..h|
00000820   0820   A9AC0000 47102620 98AD2E88 A9AC0000  4710262C 98AD2E88 A9AC0000 47102638   |z.......q..hz... ....q..hz.......|
00000840   0840   98AD2E88 A9AC0000 47102644 98AD2E88  A9AC0000 47102650 98AD2E88 A9AC0000   |q..hz.......q..h z......&q..hz...|
00000860   0860   4710265C 98AD2E88 A9AC0000 47102668  98AD2E88 A9AC0000 47102674 98AD2E88   |...*q..hz....... q..hz.......q..h|
00000880   0880   A9AC0000 47102680 98AD2E88 A9AC0000  4710268C 98AD2E88 A9AC0000 47102698   |z.......q..hz... ....q..hz......q|
000008A0   08A0   98AD2E88 A9AC0000 471026A4 98AD2E88  A9AC0000 471026B0 98AD2E88 A9AC0000   |q..hz......uq..h z.......q..hz...|
000008C0   08C0   471026BC 98AD2E88 A9AC0000 471026C8  98AD2E88 A9AC0000 471026D4 98AD2E88   |....q..hz......H q..hz......Mq..h|
000008E0   08E0   A9AC0000 471026E0 98AD2E88 A9AC0000  471026EC 98AD2E88 A9AC0000 471026F8   |z.......q..hz... ....q..hz......8|
00000900   0900   98AD2E88 A9AC0000 47102704 98AD2E88  A9AC0000 47102710 98AD2E88 A9AC0000   |q..hz.......q..h z.......q..hz...|
00000920   0920   4710271C 98AD2E88 A9AC0000 47102728  98AD2E88 A9AC0000 47102734 98AD2E88   |....q..hz....... q..hz.......q..h|
00000940   0940   A9AC0000 47102740 98AD2E88 A9AC0000  4710274C 98AD2E88 A9AC0000 47102758   |z...... q..hz... ...<q..hz.......|
00000960   0960   98AD2E88 A9AC0000 47102764 98AD2E88  A9AC0000 47102770 98AD2E88 A9AC0000   |q..hz.......q..h z.......q..hz...|
00000980   0980   4710277C 98AD2E88 A9AC0000 47102788  98AD2E88 A9AC0000 47102794 98AD2E88   |...@q..hz......h q..hz......mq..h|
000009A0   09A0   A9AC0000 471027A0 98AD2E88 A9AC0000  471027AC 98AD2E88 A9AC0000 471027B8   |z.......q..hz... ....q..hz.......|
000009C0   09C0   98AD2E88 A9AC0000 471027C4 98AD2E88  A9AC0000 471027D0 98AD2E88 A9AC0000   |q..hz......Dq..h z.......q..hz...|
000009E0   09E0   471027DC 98AD2E88 A9AC0000 471027E8  98AD2E88 A9AC0000 471027F4 98AD2E88   |....q..hz......Y q..hz......4q..h|
00000A00   0A00   A9AC0000 47102800 98AD2E88 A9AC0000  4710280C 98AD2E88 A9AC0000 47102818   |z.......q..hz... ....q..hz.......|
00000A20   0A20   98AD2E88 A9AC0000 47102824 98AD2E88  A9AC0000 47102830 98AD2E88 A9AC0000   |q..hz.......q..h z.......q..hz...|
00000A40   0A40   4710283C 98AD2E88 A9AC0000 47102848  98AD2E88 A9AC0000 47102854 98AD2E88   |....q..hz....... q..hz.......q..h|
00000A60   0A60   A9AC0000 47102860 98AD2E88 A9AC0000  4710286C 98AD2E88 A9AC0000 47102878   |z......-q..hz... ...%q..hz.......|
00000A80   0A80   98AD2E88 A9AC0000 47102884 98AD2E88  A9AC0000 47102890 98AD2E88 A9AC0000   |q..hz......dq..h z.......q..hz...|
00000AA0   0AA0   4710289C 98AD2E88 A9AC0000 471028A8  98AD2E88 A9AC0000 471028B4 98AD2E88   |....q..hz......y q..hz.......q..h|
00000AC0   0AC0   A9AC0000 471028C0 98AD2E88 A9AC0000  471028CC 98AD2E88 A9AC0000 471028D8   |z.......q..hz... ....q..hz......Q|
00000AE0   0AE0   98AD2E88 A9AC0000 471028E4 98AD2E88  A9AC0000 471028F0 98AD2E88 A9AC0000   |q..hz......Uq..h z......0q..hz...|
00000B00   0B00   471028FC 98AD2E88 A9AC0000 47102908  98AD2E88 A9AC0000 47102914 98AD2E88   |....q..hz....... q..hz.......q..h|
00000B20   0B20   A9AC0000 47102920 98AD2E88 A9AC0000  4710292C 98AD2E88 A9AC0000 47102938   |z.......q..hz... ....q..hz.......|
00000B40   0B40   98AD2E88 A9AC0000 47102944 98AD2E88  A9AC0000 47102950 98AD2E88 A9AC0000   |q..hz.......q..h z......&q..hz...|
00000B60   0B60   4710295C 0656B205 2DA0D204 2DF92D7C  45F02AC2 07FE9295 9FFE9200 9FFF98AD   |...*......K..9.@ .0.B..kn..k...q.|
ASMA Ver. 0.2.1              CLCE-03-performance (Test CLCLE instructions)                          23 Aug 2022 21:53:43  Page    48

  ADDR     POS                                 OBJECT CONTENT                                         CHARACTER CONTENT

00000B80   0B80   2EF80EAC 58A02D64 41B00020 58C02D68  1F004160 00045870 2D6C50C0 A000960F   |.8.............. ...-.....%&...o.|
00000BA0   0BA0   A0031EA6 41D00010 5000C000 1E071EC6  46D029A8 46B0299A 98AD2EF8 185A5E50   |...w....&......F ...y....q..8.!;&|
00000BC0   0BC0   2D701865 8850000C 89500002 92049FFF  5E502D68 96045002 92029FFF D2072A20   |....h&..i&..k... ;&..o.&.k...K...|
00000BE0   0BE0   00684100 2A305000 006C9208 0069920F  9FFFB700 2D88B711 2D8C8200 2A284700   |......&..%k...k. .....h....b.....|
00000C00   0C00   29FE4700 2A02B20D 0000A9AC 00004710  2A0A0700 07000700 00000000 00000000   |..........z..... ................|
00000C20   0C20   00000000 00000000 04080000 00000BFE  D2070068 2A209268 9FFFD503 2D74002C   |................ K.....k...N.....|
00000C40   0C40   47702C78 92119FFF 9511008F 47702C78  92059FFF 58000090 8800000C 8900000C   |....k...n....... k.......h...i...|
00000C60   0C60   8860000C 8960000C 15064770 2C789206  9FFF55A0 2EF847D0 2C7855C0 2F0047D0   |h-..i-........k. .....8..........|
00000C80   0C80   2C789207 9FFF15BD 47702C78 55B02EFC  47B02C78 55D02F04 47B02C78 92089FFF   |..k............. ............k...|
00000CA0   0CA0   55A02F98 47B02C78 92099FFF 15A64720  2C789210 9FFF187A 1E7B1576 47D02C78   |...q....k....w.. ..k....:.#......|
00000CC0   0CC0   07FE50F0 2B9845F0 2B9C4150 2DB04160  2DA84170 2DA845F0 2BF098CD 2DA88CC0   |..&0.q.0...&...- .y...y.0.0q..y..|
00000CE0   0CE0   000C4EC0 2DB84ED0 2DC0F877 2DC82DB8  FC752DC8 2D82FA77 2DC82DC0 D20B2E03   |..+...+...8..H.. ...H.b...H..K...|
00000D00   0D00   2E1CDE0B 2E032DCB 9200300E D201300A  30065810 30005840 3018B233 4000A774   |........k...K... ....... .... .x.|
00000D20   0D20   00A55840 3020D207 2B480078 D2070078  2B408200 2B380000 020A0000 00000000   |.v. ..K.....K... . b.............|
00000D40   0D40   00082000 00000D50 00000000 00000000  D2070078 2B485510 00B8A774 FFE6B235   |.......&........ K.........x..W..|
00000D60   0D60   4000A744 FFE2A714 0081D600 300E4003  D601300A 40089104 300EA7E4 FFD6D203   | .x..Sx..aO... . O... .j...xU.OK.|
00000D80   0D80   30104004 D2013016 400A910C 300AA7E4  006D58F0 2B9807FF 00000000 50F02BE0   |.. .K... .j...xU ._.0.q......&0..|
00000DA0   0DA0   90572BE4 98672D98 8C600006 8D600006  90672D98 98672DA0 8C600006 8D600006   |...Uq..q.-...-.. ...qq....-...-..|
00000DC0   0DC0   90672DA0 41502D98 41602DA0 41702DA8  45F02BF0 98572BE4 58F02BE0 07FF0000   |.....&.q.-.....y .0.0q..U.0......|
00000DE0   0DE0   00000000 00000000 00000000 00000000  90AD2C18 98AB5000 98CD6000 1FDB47B0   |................ ....q.&.q.-.....|
00000E00   0E00   2C065FC0 2D781FCA 90CD7000 98AD2C18  07FF0000 00000000 00000000 00000000   |...........q... ................|
00000E20   0E20   00000000 00000000 41302CE8 58803018  45F02C88 45F02C96 07FE90AD 2FA8D50F   |...........Y.... .0.h.0.o.....yN.|
00000E40   0E40   50002FA8 47702C78 07FF8200 2C500000  000A0000 00000000 82002C60 00000000   |&..y......b..&.. ........b..-....|
00000E60   0E60   000A0000 00010001 82002C70 00000000  000A0000 00010002 82002C80 00000000   |........b....... ........b.......|
00000E80   0E80   000A0000 00010BAD B7662C90 47F02C94  FF000000 07FF5810 2CDC5840 3028B234   |.............0.m ........... ....|
00000EA0   0EA0   4000A774 FFDB9101 4005A784 0011D501  40063004 A774000C 50103000 96804005   | .x...j. .xd..N.  ...x...&...o. .|
00000EC0   0EC0   B2324000 A7840010 A7F4FFC8 41101001  55102CE0 A7D4FFE5 A724FFC0 00010000   |.. .xd..x4.H.... ....xM.Vx.......|
00000EE0   0EE0   0001FFFF 07FF0000 00000000 00090000  D33F0000 00000080 00000000 00000000   |................ L...............|
00000F00   0F00   00000F58 00000000 00000F18 00000000  00000F18 00000000 00000000 00000000   |................ ................|
00000F20   0F20   00000000 00000000 00000000 00000000  00000000 00000000 00000000 00000000   |................ ................|
00000F40   0F40   00000000 00000000 00000000 00000000  00000000 00000000 00000000 0080FF00   |................ ................|
00000F60   0F60   00000FD0 00003000 00003080 00001000  00005000 00000C0A 00000001 C3D3C3D3   |................ ..&.........CLCL|
00000F80   0F80   C5400429 4967296C 00B00060 00003002  00002710 00000000 BBBBBBBB BBBBBBBB   |E .....%...-.... ................|
00000FA0   0FA0   EEEEEEEE EEEEEEEE DDDDDDDD DDDDDDDD  FFFFFFFF FFFFFFFF 00000000 0000000C   |................ ................|
00000FC0   0FC0   00000000 0000000C 00000000 0000000C  09000044 00000FD8 40404040 40404040   |................ .......Q        |
00000FE0   0FE0   40F16BF0 F0F06BF0 F0F04089 A3859981  A3899695 A2409686 40E7E7E7 E7E740A3   | 1,000,000 itera tions of XXXXX t|
00001000   1000   96969240 F9F9F96B F9F9F96B F9F9F940  94898399 96A28583 969584A2 40202020   |ook 999,999,999  microseconds ...|
00001020   1020   6B202020 6B202120 00010000 00110000  00010000 00110000 0000FFF4 0010FFDE   |,...,........... ...........4....|
00001040   1040   00010000 0010FFDE 00020000 00120000  00030000 00130000 00040000 00140000   |................ ................|
00001060   1060   0004FFF4 00150000 00060000 00000001  00160000 00000001 00060000 00000002   |...4............ ................|
00001080   1080   00160000 00000002 00060000 00000100  00160000 00000100 00060000 00000400   |................ ................|
000010A0   10A0   00160000 00000400 0005FFF4 00010000  0015FFDE 00010000 00060000 00001000   |...........4.... ................|
000010C0   10C0   0015FFDE 00010000 00070000 00000004  00170000 00000004 00080000 00000008   |................ ................|
000010E0   10E0   00180000 00000008 0008FFF4 00010000  00190000 00001000 000A0000 00010000   |...........4.... ................|
00001100   1100   001A0000 00010000 00060001 00000000  00160001 00000000 00060002 00000000   |................ ................|
00001120   1120   00160002 00000000 00060100 00000000  00160100 00000000 00060400 00000000   |................ ................|
00001140   1140   00160400 00000000 0006FFF4 00000000  0016FFDE 00000000 00061000 00000000   |...........4.... ................|
00001160   1160   0016FFDE 00000000 00070003 00000001  00170003 00000001 00080007 00000001   |................ ................|
00001180   1180   00180007 00000001 0009FFF3 00000001  00191000 00000000 000B0000 00000000   |...........3.... ................|
000011A0   11A0   001B0000 00000000 00000000 00000000  00000000 00000000 00000000 00000000   |................ ................|
000011C0   11C0   00000000 00000000 00000000 00000000  00000000 00000000 00000000 00000000   |................ ................|
000011E0   11E0   00000000 00000000 00000000 00000000  00000000 00000000 00000000 00000000   |................ ................|
ASMA Ver. 0.2.1              CLCE-03-performance (Test CLCLE instructions)                          23 Aug 2022 21:53:43  Page    49

  ADDR     POS                                 OBJECT CONTENT                                         CHARACTER CONTENT

00001200   1200   00000000 00000000 00000000 00000000  00000000 00000000 00000000 00000000   |................ ................|
00001220   1220   00000000 00000000 00000000 00000000  00000000 00000000 00000000 00000000   |................ ................|
00001240   1240   00000000 00000000 00000000 00000000  00000000 00000000 00000000 00000000   |................ ................|
00001260   1260   00000000 00000000 00000000 00000000  00000000 00000000 00000000 00000000   |................ ................|
00001280   1280   00000000 00000000 00000000 00000000  00000000 00000000 00000000 00000000   |................ ................|
000012A0   12A0   00000000 00000000 00000000 00000000  00000000 00000000 00000000 00000000   |................ ................|
000012C0   12C0   00000000 00000000 00000000 00000000  00000000 00000000 00000000 00000000   |................ ................|
000012E0   12E0   00000000 00000000 00000000 00000000  00000000 00000000 00000000 00000000   |................ ................|
00001300   1300   00000000 00000000 00000000 00000000  00000000 00000000 00000000 00000000   |................ ................|
00001320   1320   00000000 00000000 00000000 00000000  00000000 00000000 00000000 00000000   |................ ................|
00001340   1340   00000000 00000000 00000000 00000000  00000000 00000000 00000000 00000000   |................ ................|
00001360   1360   00000000 00000000 00000000 00000000  00000000 00000000 00000000 00000000   |................ ................|
00001380   1380   00000000 00000000 00000000 00000000  00000000 00000000 00000000 00000000   |................ ................|
000013A0   13A0   00000000 00000000 00000000 00000000  00000000 00000000 00000000 00000000   |................ ................|
000013C0   13C0   00000000 00000000 00000000 00000000  00000000 00000000 00000000 00000000   |................ ................|
000013E0   13E0   00000000 00000000 00000000 00000000  00000000 00000000 00000000 00000000   |................ ................|
00001400   1400   00000000 00000000 00000000 00000000  00000000 00000000 00000000 00000000   |................ ................|
00001420   1420   00000000 00000000 00000000 00000000  00000000 00000000 00000000 00000000   |................ ................|
00001440   1440   00000000 00000000 00000000 00000000  00000000 00000000 00000000 00000000   |................ ................|
00001460   1460   00000000 00000000 00000000 00000000  00000000 00000000 00000000 00000000   |................ ................|
00001480   1480   00000000 00000000 00000000 00000000  00000000 00000000 00000000 00000000   |................ ................|
000014A0   14A0   00000000 00000000 00000000 00000000  00000000 00000000 00000000 00000000   |................ ................|
000014C0   14C0   00000000 00000000 00000000 00000000  00000000 00000000 00000000 00000000   |................ ................|
000014E0   14E0   00000000 00000000 00000000 00000000  00000000 00000000 00000000 00000000   |................ ................|
00001500   1500   00000000 00000000 00000000 00000000  00000000 00000000 00000000 00000000   |................ ................|
00001520   1520   00000000 00000000 00000000 00000000  00000000 00000000 00000000 00000000   |................ ................|
00001540   1540   00000000 00000000 00000000 00000000  00000000 00000000 00000000 00000000   |................ ................|
00001560   1560   00000000 00000000 00000000 00000000  00000000 00000000 00000000 00000000   |................ ................|
00001580   1580   00000000 00000000 00000000 00000000  00000000 00000000 00000000 00000000   |................ ................|
000015A0   15A0   00000000 00000000 00000000 00000000  00000000 00000000 00000000 00000000   |................ ................|
000015C0   15C0   00000000 00000000 00000000 00000000  00000000 00000000 00000000 00000000   |................ ................|
000015E0   15E0   00000000 00000000 00000000 00000000  00000000 00000000 00000000 00000000   |................ ................|
00001600   1600   00000000 00000000 00000000 00000000  00000000 00000000 00000000 00000000   |................ ................|
00001620   1620   00000000 00000000 00000000 00000000  00000000 00000000 00000000 00000000   |................ ................|
00001640   1640   00000000 00000000 00000000 00000000  00000000 00000000 00000000 00000000   |................ ................|
00001660   1660   00000000 00000000 00000000 00000000  00000000 00000000 00000000 00000000   |................ ................|
00001680   1680   00000000 00000000 00000000 00000000  00000000 00000000 00000000 00000000   |................ ................|
000016A0   16A0   00000000 00000000 00000000 00000000  00000000 00000000 00000000 00000000   |................ ................|
000016C0   16C0   00000000 00000000 00000000 00000000  00000000 00000000 00000000 00000000   |................ ................|
000016E0   16E0   00000000 00000000 00000000 00000000  00000000 00000000 00000000 00000000   |................ ................|
00001700   1700   00000000 00000000 00000000 00000000  00000000 00000000 00000000 00000000   |................ ................|
00001720   1720   00000000 00000000 00000000 00000000  00000000 00000000 00000000 00000000   |................ ................|
00001740   1740   00000000 00000000 00000000 00000000  00000000 00000000 00000000 00000000   |................ ................|
00001760   1760   00000000 00000000 00000000 00000000  00000000 00000000 00000000 00000000   |................ ................|
00001780   1780   00000000 00000000 00000000 00000000  00000000 00000000 00000000 00000000   |................ ................|
000017A0   17A0   00000000 00000000 00000000 00000000  00000000 00000000 00000000 00000000   |................ ................|
000017C0   17C0   00000000 00000000 00000000 00000000  00000000 00000000 00000000 00000000   |................ ................|
000017E0   17E0   00000000 00000000 00000000 00000000  00000000 00000000 00000000 00000000   |................ ................|
00001800   1800   00000000 00000000 00000000 00000000  00000000 00000000 00000000 00000000   |................ ................|
00001820   1820   00000000 00000000 00000000 00000000  00000000 00000000 00000000 00000000   |................ ................|
00001840   1840   00000000 00000000 00000000 00000000  00000000 00000000 00000000 00000000   |................ ................|
00001860   1860   00000000 00000000 00000000 00000000  00000000 00000000 00000000 00000000   |................ ................|
ASMA Ver. 0.2.1              CLCE-03-performance (Test CLCLE instructions)                          23 Aug 2022 21:53:43  Page    50

  ADDR     POS                                 OBJECT CONTENT                                         CHARACTER CONTENT

00001880   1880   00000000 00000000 00000000 00000000  00000000 00000000 00000000 00000000   |................ ................|
000018A0   18A0   00000000 00000000 00000000 00000000  00000000 00000000 00000000 00000000   |................ ................|
000018C0   18C0   00000000 00000000 00000000 00000000  00000000 00000000 00000000 00000000   |................ ................|
000018E0   18E0   00000000 00000000 00000000 00000000  00000000 00000000 00000000 00000000   |................ ................|
00001900   1900   00000000 00000000 00000000 00000000  00000000 00000000 00000000 00000000   |................ ................|
00001920   1920   00000000 00000000 00000000 00000000  00000000 00000000 00000000 00000000   |................ ................|
00001940   1940   00000000 00000000 00000000 00000000  00000000 00000000 00000000 00000000   |................ ................|
00001960   1960   00000000 00000000 00000000 00000000  00000000 00000000 00000000 00000000   |................ ................|
00001980   1980   00000000 00000000 00000000 00000000  00000000 00000000 00000000 00000000   |................ ................|
000019A0   19A0   00000000 00000000 00000000 00000000  00000000 00000000 00000000 00000000   |................ ................|
000019C0   19C0   00000000 00000000 00000000 00000000  00000000 00000000 00000000 00000000   |................ ................|
000019E0   19E0   00000000 00000000 00000000 00000000  00000000 00000000 00000000 00000000   |................ ................|
00001A00   1A00   00000000 00000000 00000000 00000000  00000000 00000000 00000000 00000000   |................ ................|
00001A20   1A20   00000000 00000000 00000000 00000000  00000000 00000000 00000000 00000000   |................ ................|
00001A40   1A40   00000000 00000000 00000000 00000000  00000000 00000000 00000000 00000000   |................ ................|
00001A60   1A60   00000000 00000000 00000000 00000000  00000000 00000000 00000000 00000000   |................ ................|
00001A80   1A80   00000000 00000000 00000000 00000000  00000000 00000000 00000000 00000000   |................ ................|
00001AA0   1AA0   00000000 00000000 00000000 00000000  00000000 00000000 00000000 00000000   |................ ................|
00001AC0   1AC0   00000000 00000000 00000000 00000000  00000000 00000000 00000000 00000000   |................ ................|
00001AE0   1AE0   00000000 00000000 00000000 00000000  00000000 00000000 00000000 00000000   |................ ................|
00001B00   1B00   00000000 00000000 00000000 00000000  00000000 00000000 00000000 00000000   |................ ................|
00001B20   1B20   00000000 00000000 00000000 00000000  00000000 00000000 00000000 00000000   |................ ................|
00001B40   1B40   00000000 00000000 00000000 00000000  00000000 00000000 00000000 00000000   |................ ................|
00001B60   1B60   00000000 00000000 00000000 00000000  00000000 00000000 00000000 00000000   |................ ................|
00001B80   1B80   00000000 00000000 00000000 00000000  00000000 00000000 00000000 00000000   |................ ................|
00001BA0   1BA0   00000000 00000000 00000000 00000000  00000000 00000000 00000000 00000000   |................ ................|
00001BC0   1BC0   00000000 00000000 00000000 00000000  00000000 00000000 00000000 00000000   |................ ................|
00001BE0   1BE0   00000000 00000000 00000000 00000000  00000000 00000000 00000000 00000000   |................ ................|
00001C00   1C00   00000000 00000000 00000000 00000000  00000000 00000000 00000000 00000000   |................ ................|
00001C20   1C20   00000000 00000000 00000000 00000000  00000000 00000000 00000000 00000000   |................ ................|
00001C40   1C40   00000000 00000000 00000000 00000000  00000000 00000000 00000000 00000000   |................ ................|
00001C60   1C60   00000000 00000000 00000000 00000000  00000000 00000000 00000000 00000000   |................ ................|
00001C80   1C80   00000000 00000000 00000000 00000000  00000000 00000000 00000000 00000000   |................ ................|
00001CA0   1CA0   00000000 00000000 00000000 00000000  00000000 00000000 00000000 00000000   |................ ................|
00001CC0   1CC0   00000000 00000000 00000000 00000000  00000000 00000000 00000000 00000000   |................ ................|
00001CE0   1CE0   00000000 00000000 00000000 00000000  00000000 00000000 00000000 00000000   |................ ................|
00001D00   1D00   00000000 00000000 00000000 00000000  00000000 00000000 00000000 00000000   |................ ................|
00001D20   1D20   00000000 00000000 00000000 00000000  00000000 00000000 00000000 00000000   |................ ................|
00001D40   1D40   00000000 00000000 00000000 00000000  00000000 00000000 00000000 00000000   |................ ................|
00001D60   1D60   00000000 00000000 00000000 00000000  00000000 00000000 00000000 00000000   |................ ................|
00001D80   1D80   00000000 00000000 00000000 00000000  00000000 00000000 00000000 00000000   |................ ................|
00001DA0   1DA0   00000000 00000000 00000000 00000000  00000000 00000000 00000000 00000000   |................ ................|
00001DC0   1DC0   00000000 00000000 00000000 00000000  00000000 00000000 00000000 00000000   |................ ................|
00001DE0   1DE0   00000000 00000000 00000000 00000000  00000000 00000000 00000000 00000000   |................ ................|
00001E00   1E00   00000000 00000000 00000000 00000000  00000000 00000000 00000000 00000000   |................ ................|
00001E20   1E20   00000000 00000000 00000000 00000000  00000000 00000000 00000000 00000000   |................ ................|
00001E40   1E40   00000000 00000000 00000000 00000000  00000000 00000000 00000000 00000000   |................ ................|
00001E60   1E60   00000000 00000000 00000000 00000000  00000000 00000000 00000000 00000000   |................ ................|
00001E80   1E80   00000000 00000000 00000000 00000000  00000000 00000000 00000000 00000000   |................ ................|
00001EA0   1EA0   00000000 00000000 00000000 00000000  00000000 00000000 00000000 00000000   |................ ................|
00001EC0   1EC0   00000000 00000000 00000000 00000000  00000000 00000000 00000000 00000000   |................ ................|
00001EE0   1EE0   00000000 00000000 00000000 00000000  00000000 00000000 00000000 00000000   |................ ................|
ASMA Ver. 0.2.1              CLCE-03-performance (Test CLCLE instructions)                          23 Aug 2022 21:53:43  Page    51

  ADDR     POS                                 OBJECT CONTENT                                         CHARACTER CONTENT

00001F00   1F00   00000000 00000000 00000000 00000000  00000000 00000000 00000000 00000000   |................ ................|
00001F20   1F20   00000000 00000000 00000000 00000000  00000000 00000000 00000000 00000000   |................ ................|
00001F40   1F40   00000000 00000000 00000000 00000000  00000000 00000000 00000000 00000000   |................ ................|
00001F60   1F60   00000000 00000000 00000000 00000000  00000000 00000000 00000000 00000000   |................ ................|
00001F80   1F80   00000000 00000000 00000000 00000000  00000000 00000000 00000000 00000000   |................ ................|
00001FA0   1FA0   00000000 00000000 00000000 00000000  00000000 00000000 00000000 00000000   |................ ................|
00001FC0   1FC0   00000000 00000000 00000000 00000000  00000000 00000000 00000000 00000000   |................ ................|
00001FE0   1FE0   00000000 00000000 00000000 00000000  00000000 00000000 00000000 00000000   |................ ................|
00002000   2000   00000000 00000000 00000000 00000000  00000000 00000000 00000000 00000000   |................ ................|
00002020   2020   00000000 00000000 00000000 00000000  00000000 00000000 00000000 00000000   |................ ................|
00002040   2040   00000000 00000000 00000000 00000000  00000000 00000000 00000000 00000000   |................ ................|
00002060   2060   00000000 00000000 00000000 00000000  00000000 00000000 00000000 00000000   |................ ................|
00002080   2080   00000000 00000000 00000000 00000000  00000000 00000000 00000000 00000000   |................ ................|
000020A0   20A0   00000000 00000000 00000000 00000000  00000000 00000000 00000000 00000000   |................ ................|
000020C0   20C0   00000000 00000000 00000000 00000000  00000000 00000000 00000000 00000000   |................ ................|
000020E0   20E0   00000000 00000000 00000000 00000000  00000000 00000000 00000000 00000000   |................ ................|
00002100   2100   00000000 00000000 00000000 00000000  00000000 00000000 00000000 00000000   |................ ................|
00002120   2120   00000000 00000000 00000000 00000000  00000000 00000000 00000000 00000000   |................ ................|
00002140   2140   00000000 00000000 00000000 00000000  00000000 00000000 00000000 00000000   |................ ................|
00002160   2160   00000000 00000000 00000000 00000000  00000000 00000000 00000000 00000000   |................ ................|
00002180   2180   00000000 00000000 00000000 00000000  00000000 00000000 00000000 00000000   |................ ................|
000021A0   21A0   00000000 00000000 00000000 00000000  00000000 00000000 00000000 00000000   |................ ................|
000021C0   21C0   00000000 00000000 00000000 00000000  00000000 00000000 00000000 00000000   |................ ................|
000021E0   21E0   00000000 00000000 00000000 00000000  00000000 00000000 00000000 00000000   |................ ................|
00002200   2200   00000000 00000000 00000000 00000000  00000000 00000000 00000000 00000000   |................ ................|
00002220   2220   00000000 00000000 00000000 00000000  00000000 00000000 00000000 00000000   |................ ................|
00002240   2240   00000000 00000000 00000000 00000000  00000000 00000000 00000000 00000000   |................ ................|
00002260   2260   00000000 00000000 00000000 00000000  00000000 00000000 00000000 00000000   |................ ................|
00002280   2280   00000000 00000000 00000000 00000000  00000000 00000000 00000000 00000000   |................ ................|
000022A0   22A0   00000000 00000000 00000000 00000000  00000000 00000000 00000000 00000000   |................ ................|
000022C0   22C0   00000000 00000000 00000000 00000000  00000000 00000000 00000000 00000000   |................ ................|
000022E0   22E0   00000000 00000000 00000000 00000000  00000000 00000000 00000000 00000000   |................ ................|
00002300   2300   00000000 00000000 00000000 00000000  00000000 00000000 00000000 00000000   |................ ................|
00002320   2320   00000000 00000000 00000000 00000000  00000000 00000000 00000000 00000000   |................ ................|
00002340   2340   00000000 00000000 00000000 00000000  00000000 00000000 00000000 00000000   |................ ................|
00002360   2360   00000000 00000000 00000000 00000000  00000000 00000000 00000000 00000000   |................ ................|
00002380   2380   00000000 00000000 00000000 00000000  00000000 00000000 00000000 00000000   |................ ................|
000023A0   23A0   00000000 00000000 00000000 00000000  00000000 00000000 00000000 00000000   |................ ................|
000023C0   23C0   00000000 00000000 00000000 00000000  00000000 00000000 00000000 00000000   |................ ................|
000023E0   23E0   00000000 00000000 00000000 00000000  00000000 00000000 00000000 00000000   |................ ................|
00002400   2400   00000000 00000000 00000000 00000000  00000000 00000000 00000000 00000000   |................ ................|
00002420   2420   00000000 00000000 00000000 00000000  00000000 00000000 00000000 00000000   |................ ................|
00002440   2440   00000000 00000000 00000000 00000000  00000000 00000000 00000000 00000000   |................ ................|
00002460   2460   00000000 00000000 00000000 00000000  00000000 00000000 00000000 00000000   |................ ................|
00002480   2480   00000000 00000000 00000000 00000000  00000000 00000000 00000000 00000000   |................ ................|
000024A0   24A0   00000000 00000000 00000000 00000000  00000000 00000000 00000000 00000000   |................ ................|
000024C0   24C0   00000000 00000000 00000000 00000000  00000000 00000000 00000000 00000000   |................ ................|
000024E0   24E0   00000000 00000000 00000000 00000000  00000000 00000000 00000000 00000000   |................ ................|
00002500   2500   00000000 00000000 00000000 00000000  00000000 00000000 00000000 00000000   |................ ................|
00002520   2520   00000000 00000000 00000000 00000000  00000000 00000000 00000000 00000000   |................ ................|
00002540   2540   00000000 00000000 00000000 00000000  00000000 00000000 00000000 00000000   |................ ................|
00002560   2560   00000000 00000000 00000000 00000000  00000000 00000000 00000000 00000000   |................ ................|
ASMA Ver. 0.2.1              CLCE-03-performance (Test CLCLE instructions)                          23 Aug 2022 21:53:43  Page    52

  ADDR     POS                                 OBJECT CONTENT                                         CHARACTER CONTENT

00002580   2580   00000000 00000000 00000000 00000000  00000000 00000000 00000000 00000000   |................ ................|
000025A0   25A0   00000000 00000000 00000000 00000000  00000000 00000000 00000000 00000000   |................ ................|
000025C0   25C0   00000000 00000000 00000000 00000000  00000000 00000000 00000000 00000000   |................ ................|
000025E0   25E0   00000000 00000000 00000000 00000000  00000000 00000000 00000000 00000000   |................ ................|
00002600   2600   00000000 00000000 00000000 00000000  00000000 00000000 00000000 00000000   |................ ................|
00002620   2620   00000000 00000000 00000000 00000000  00000000 00000000 00000000 00000000   |................ ................|
00002640   2640   00000000 00000000 00000000 00000000  00000000 00000000 00000000 00000000   |................ ................|
00002660   2660   00000000 00000000 00000000 00000000  00000000 00000000 00000000 00000000   |................ ................|
00002680   2680   00000000 00000000 00000000 00000000  00000000 00000000 00000000 00000000   |................ ................|
000026A0   26A0   00000000 00000000 00000000 00000000  00000000 00000000 00000000 00000000   |................ ................|
000026C0   26C0   00000000 00000000 00000000 00000000  00000000 00000000 00000000 00000000   |................ ................|
000026E0   26E0   00000000 00000000 00000000 00000000  00000000 00000000 00000000 00000000   |................ ................|
00002700   2700   00000000 00000000 00000000 00000000  00000000 00000000 00000000 00000000   |................ ................|
00002720   2720   00000000 00000000 00000000 00000000  00000000 00000000 00000000 00000000   |................ ................|
00002740   2740   00000000 00000000 00000000 00000000  00000000 00000000 00000000 00000000   |................ ................|
00002760   2760   00000000 00000000 00000000 00000000  00000000 00000000 00000000 00000000   |................ ................|
00002780   2780   00000000 00000000 00000000 00000000  00000000 00000000 00000000 00000000   |................ ................|
000027A0   27A0   00000000 00000000 00000000 00000000  00000000 00000000 00000000 00000000   |................ ................|
000027C0   27C0   00000000 00000000 00000000 00000000  00000000 00000000 00000000 00000000   |................ ................|
000027E0   27E0   00000000 00000000 00000000 00000000  00000000 00000000 00000000 00000000   |................ ................|
00002800   2800   00000000 00000000 00000000 00000000  00000000 00000000 00000000 00000000   |................ ................|
00002820   2820   00000000 00000000 00000000 00000000  00000000 00000000 00000000 00000000   |................ ................|
00002840   2840   00000000 00000000 00000000 00000000  00000000 00000000 00000000 00000000   |................ ................|
00002860   2860   00000000 00000000 00000000 00000000  00000000 00000000 00000000 00000000   |................ ................|
00002880   2880   00000000 00000000 00000000 00000000  00000000 00000000 00000000 00000000   |................ ................|
000028A0   28A0   00000000 00000000 00000000 00000000  00000000 00000000 00000000 00000000   |................ ................|
000028C0   28C0   00000000 00000000 00000000 00000000  00000000 00000000 00000000 00000000   |................ ................|
000028E0   28E0   00000000 00000000 00000000 00000000  00000000 00000000 00000000 00000000   |................ ................|
00002900   2900   00000000 00000000 00000000 00000000  00000000 00000000 00000000 00000000   |................ ................|
00002920   2920   00000000 00000000 00000000 00000000  00000000 00000000 00000000 00000000   |................ ................|
00002940   2940   00000000 00000000 00000000 00000000  00000000 00000000 00000000 00000000   |................ ................|
00002960   2960   00000000 00000000 00000000 00000000  00000000 00000000 00000000 00000000   |................ ................|
00002980   2980   00000000 00000000 00000000 00000000  00000000 00000000 00000000 00000000   |................ ................|
000029A0   29A0   00000000 00000000 00000000 00000000  00000000 00000000 00000000 00000000   |................ ................|
000029C0   29C0   00000000 00000000 00000000 00000000  00000000 00000000 00000000 00000000   |................ ................|
000029E0   29E0   00000000 00000000 00000000 00000000  00000000 00000000 00000000 00000000   |................ ................|
00002A00   2A00   00000000 00000000 00000000 00000000  00000000 00000000 00000000 00000000   |................ ................|
00002A20   2A20   00000000 00000000 00000000 00000000  00000000 00000000 00000000 00000000   |................ ................|
00002A40   2A40   00000000 00000000 00000000 00000000  00000000 00000000 00000000 00000000   |................ ................|
00002A60   2A60   00000000 00000000 00000000 00000000  00000000 00000000 00000000 00000000   |................ ................|
00002A80   2A80   00000000 00000000 00000000 00000000  00000000 00000000 00000000 00000000   |................ ................|
00002AA0   2AA0   00000000 00000000 00000000 00000000  00000000 00000000 00000000 00000000   |................ ................|
00002AC0   2AC0   00000000 00000000 00000000 00000000  00000000 00000000 00000000 00000000   |................ ................|
00002AE0   2AE0   00000000 00000000 00000000 00000000  00000000 00000000 00000000 00000000   |................ ................|
00002B00   2B00   00000000 00000000 00000000 00000000  00000000 00000000 00000000 00000000   |................ ................|
00002B20   2B20   00000000 00000000 00000000 00000000  00000000 00000000 00000000 00000000   |................ ................|
00002B40   2B40   00000000 00000000 00000000 00000000  00000000 00000000 00000000 00000000   |................ ................|
00002B60   2B60   00000000 00000000 00000000 00000000  00000000 00000000 00000000 00000000   |................ ................|
00002B80   2B80   00000000 00000000 00000000 00000000  00000000 00000000 00000000 00000000   |................ ................|
00002BA0   2BA0   00000000 00000000 00000000 00000000  00000000 00000000 00000000 00000000   |................ ................|
00002BC0   2BC0   00000000 00000000 00000000 00000000  00000000 00000000 00000000 00000000   |................ ................|
00002BE0   2BE0   00000000 00000000 00000000 00000000  00000000 00000000 00000000 00000000   |................ ................|
ASMA Ver. 0.2.1              CLCE-03-performance (Test CLCLE instructions)                          23 Aug 2022 21:53:43  Page    53

  ADDR     POS                                 OBJECT CONTENT                                         CHARACTER CONTENT

00002C00   2C00   00000000 00000000 00000000 00000000  00000000 00000000 00000000 00000000   |................ ................|
00002C20   2C20   00000000 00000000 00000000 00000000  00000000 00000000 00000000 00000000   |................ ................|
00002C40   2C40   00000000 00000000 00000000 00000000  00000000 00000000 00000000 00000000   |................ ................|
00002C60   2C60   00000000 00000000 00000000 00000000  00000000 00000000 00000000 00000000   |................ ................|
00002C80   2C80   00000000 00000000 00000000 00000000  00000000 00000000 00000000 00000000   |................ ................|
00002CA0   2CA0   00000000 00000000 00000000 00000000  00000000 00000000 00000000 00000000   |................ ................|
00002CC0   2CC0   00000000 00000000 00000000 00000000  00000000 00000000 00000000 00000000   |................ ................|
00002CE0   2CE0   00000000 00000000 00000000 00000000  00000000 00000000 00000000 00000000   |................ ................|
00002D00   2D00   00000000 00000000 00000000 00000000  00000000 00000000 00000000 00000000   |................ ................|
00002D20   2D20   00000000 00000000 00000000 00000000  00000000 00000000 00000000 00000000   |................ ................|
00002D40   2D40   00000000 00000000 00000000 00000000  00000000 00000000 00000000 00000000   |................ ................|
00002D60   2D60   00000000 00000000 00000000 00000000  00000000 00000000 00000000 00000000   |................ ................|
00002D80   2D80   00000000 00000000 00000000 00000000  00000000 00000000 00000000 00000000   |................ ................|
00002DA0   2DA0   00000000 00000000 00000000 00000000  00000000 00000000 00000000 00000000   |................ ................|
00002DC0   2DC0   00000000 00000000 00000000 00000000  00000000 00000000 00000000 00000000   |................ ................|
00002DE0   2DE0   00000000 00000000 00000000 00000000  00000000 00000000 00000000 00000000   |................ ................|
00002E00   2E00   00000000 00000000 00000000 00000000  00000000 00000000 00000000 00000000   |................ ................|
00002E20   2E20   00000000 00000000 00000000 00000000  00000000 00000000 00000000 00000000   |................ ................|
00002E40   2E40   00000000 00000000 00000000 00000000  00000000 00000000 00000000 00000000   |................ ................|
00002E60   2E60   00000000 00000000 00000000 00000000  00000000 00000000 00000000 00000000   |................ ................|
00002E80   2E80   00000000 00000000 00000000 00000000  00000000 00000000 00000000 00000000   |................ ................|
00002EA0   2EA0   00000000 00000000 00000000 00000000  00000000 00000000 00000000 00000000   |................ ................|
00002EC0   2EC0   00000000 00000000 00000000 00000000  00000000 00000000 00000000 00000000   |................ ................|
00002EE0   2EE0   00000000 00000000 00000000 00000000  00000000 00000000 00000000 00000000   |................ ................|
00002F00   2F00   00000000 00000000 00000000 00000000  00000000 00000000 00000000 00000000   |................ ................|
00002F20   2F20   00000000 00000000 00000000 00000000  00000000 00000000 00000000 00000000   |................ ................|
00002F40   2F40   00000000 00000000 00000000 00000000  00000000 00000000 00000000 00000000   |................ ................|
00002F60   2F60   00000000 00000000 00000000 00000000  00000000 00000000 00000000 00000000   |................ ................|
00002F80   2F80   00000000 00000000 00000000 00000000  00000000 00000000 00000000 00000000   |................ ................|
00002FA0   2FA0   00000000 00000000 00000000 00000000  00000000 00000000 00000000 00000000   |................ ................|
00002FC0   2FC0   00000000 00000000 00000000 00000000  00000000 00000000 00000000 00000000   |................ ................|
00002FE0   2FE0   00000000 00000000 00000000 00000000  00000000 00000000 00000000 00000000   |................ ................|
00003000   3000   00                                                                         |.                                |
ASMA Ver. 0.2.1              CLCE-03-performance (Test CLCLE instructions)                          23 Aug 2022 21:53:43  Page    54

   STMT                         FILE NAME

1     /devstor/dev/satk/samples/tests/CLCLE-03-performance.asm
2     /home/tn529/dev/satk/srcasm/satk.mac


** NO ERRORS FOUND **

